---
triple:          'arm64-apple-darwin'
binary-path:     '/Users/delek/Dev/raytracinginonewknd/Wk1-2025/inoneweekend'
relocations:
  - { offset: 0x59, size: 0x8, addend: 0x0, symName: __ZN8interval5emptyE, symObjAddr: 0xEF0D8, symBinAddr: 0x100044160, symSize: 0x0 }
  - { offset: 0x183, size: 0x8, addend: 0x0, symName: __ZN8interval8universeE, symObjAddr: 0xEF0E8, symBinAddr: 0x100044170, symSize: 0x0 }
  - { offset: 0x190, size: 0x8, addend: 0x0, symName: __Z11write_colorRNSt3__113basic_ostreamIcNS_11char_traitsIcEEEERK4vec3, symObjAddr: 0x3C, symBinAddr: 0x1000033B0, symSize: 0x19C }
  - { offset: 0x1B5, size: 0x8, addend: 0x0, symName: __ZZ11write_colorRNSt3__113basic_ostreamIcNS_11char_traitsIcEEEERK4vec3E9intensity, symObjAddr: 0xEF158, symBinAddr: 0x1000441E0, symSize: 0x0 }
  - { offset: 0x235, size: 0x8, addend: 0x0, symName: __ZN4aabb5emptyE, symObjAddr: 0xEF0F8, symBinAddr: 0x100044180, symSize: 0x0 }
  - { offset: 0x61F, size: 0x8, addend: 0x0, symName: __ZN4aabb8universeE, symObjAddr: 0xEF128, symBinAddr: 0x1000441B0, symSize: 0x0 }
  - { offset: 0x645, size: 0x8, addend: 0x0, symName: __ZL22stbi__g_failure_reason, symObjAddr: 0x39C78, symBinAddr: 0x100044098, symSize: 0x0 }
  - { offset: 0x665, size: 0x8, addend: 0x0, symName: __ZL36stbi__vertically_flip_on_load_global, symObjAddr: 0xEF170, symBinAddr: 0x1000441F8, symSize: 0x0 }
  - { offset: 0x67F, size: 0x8, addend: 0x0, symName: __ZL35stbi__vertically_flip_on_load_local, symObjAddr: 0x39C90, symBinAddr: 0x1000440B0, symSize: 0x0 }
  - { offset: 0x69A, size: 0x8, addend: 0x0, symName: __ZL33stbi__vertically_flip_on_load_set, symObjAddr: 0x39CA8, symBinAddr: 0x1000440C8, symSize: 0x0 }
  - { offset: 0x6B5, size: 0x8, addend: 0x0, symName: __ZL21stbi__stdio_callbacks, symObjAddr: 0x3A6E0, symBinAddr: 0x100044010, symSize: 0x0 }
  - { offset: 0x73D, size: 0x8, addend: 0x0, symName: __ZL22stbi__check_png_headerP13stbi__context, symObjAddr: 0xBB38, symBinAddr: 0x10000EEAC, symSize: 0x98 }
  - { offset: 0x768, size: 0x8, addend: 0x0, symName: __ZZL22stbi__check_png_headerP13stbi__contextE7png_sig, symObjAddr: 0x3A768, symBinAddr: 0x10003CB50, symSize: 0x0 }
  - { offset: 0x7B4, size: 0x8, addend: 0x0, symName: __ZL20stbi__parse_png_fileP9stbi__pngii, symObjAddr: 0xC054, symBinAddr: 0x10000F3C8, symSize: 0xF04 }
  - { offset: 0x7DF, size: 0x8, addend: 0x0, symName: __ZZL20stbi__parse_png_fileP9stbi__pngiiE13invalid_chunk, symObjAddr: 0x3A6F8, symBinAddr: 0x100044028, symSize: 0x0 }
  - { offset: 0x9C7, size: 0x8, addend: 0x0, symName: __ZL23stbi__depth_scale_table, symObjAddr: 0x3A770, symBinAddr: 0x10003CB58, symSize: 0x0 }
  - { offset: 0x9ED, size: 0x8, addend: 0x0, symName: __ZL16first_row_filter, symObjAddr: 0x3A711, symBinAddr: 0x100044041, symSize: 0x0 }
  - { offset: 0xA06, size: 0x8, addend: 0x0, symName: __ZL17stbi__shiftsignedjii, symObjAddr: 0x10E50, symBinAddr: 0x1000141C4, symSize: 0x144 }
  - { offset: 0xA31, size: 0x8, addend: 0x0, symName: __ZZL17stbi__shiftsignedjiiE9mul_table, symObjAddr: 0x3A718, symBinAddr: 0x100044048, symSize: 0x0 }
  - { offset: 0xA47, size: 0x8, addend: 0x0, symName: __ZZL17stbi__shiftsignedjiiE11shift_table, symObjAddr: 0x3A73C, symBinAddr: 0x10004406C, symSize: 0x0 }
  - { offset: 0xA91, size: 0x8, addend: 0x0, symName: __ZL20stbi__process_markerP10stbi__jpegi, symObjAddr: 0x14334, symBinAddr: 0x1000176A8, symSize: 0x844 }
  - { offset: 0xABC, size: 0x8, addend: 0x0, symName: __ZZL20stbi__process_markerP10stbi__jpegiE3tag, symObjAddr: 0x3A83B, symBinAddr: 0x10003CC23, symSize: 0x0 }
  - { offset: 0xAD2, size: 0x8, addend: 0x0, symName: __ZZL20stbi__process_markerP10stbi__jpegiE3tag_0, symObjAddr: 0x3A840, symBinAddr: 0x10003CC28, symSize: 0x0 }
  - { offset: 0xC63, size: 0x8, addend: 0x0, symName: __ZL19stbi__jpeg_dezigzag, symObjAddr: 0x3A7EC, symBinAddr: 0x10003CBD4, symSize: 0x0 }
  - { offset: 0xC7C, size: 0x8, addend: 0x0, symName: __ZL26stbi__process_frame_headerP10stbi__jpegi, symObjAddr: 0x14B78, symBinAddr: 0x100017EEC, symSize: 0xC44 }
  - { offset: 0xCA7, size: 0x8, addend: 0x0, symName: __ZZL26stbi__process_frame_headerP10stbi__jpegiE3rgb, symObjAddr: 0x3A846, symBinAddr: 0x10003CC2E, symSize: 0x0 }
  - { offset: 0xD60, size: 0x8, addend: 0x0, symName: __ZL11stbi__bmask, symObjAddr: 0x3A84C, symBinAddr: 0x10003CC34, symSize: 0x0 }
  - { offset: 0xDA2, size: 0x8, addend: 0x0, symName: __ZL11stbi__jbias, symObjAddr: 0x3A890, symBinAddr: 0x10003CC78, symSize: 0x0 }
  - { offset: 0xDCD, size: 0x8, addend: 0x0, symName: __ZL15stbi__l2h_gamma, symObjAddr: 0x3A6D0, symBinAddr: 0x100044000, symSize: 0x0 }
  - { offset: 0xDEE, size: 0x8, addend: 0x0, symName: __ZL15stbi__l2h_scale, symObjAddr: 0x3A6D4, symBinAddr: 0x100044004, symSize: 0x0 }
  - { offset: 0xE08, size: 0x8, addend: 0x0, symName: __ZL17stbi__h2l_gamma_i, symObjAddr: 0x3A6D8, symBinAddr: 0x100044008, symSize: 0x0 }
  - { offset: 0xE22, size: 0x8, addend: 0x0, symName: __ZL17stbi__h2l_scale_i, symObjAddr: 0x3A6DC, symBinAddr: 0x10004400C, symSize: 0x0 }
  - { offset: 0xE3C, size: 0x8, addend: 0x0, symName: __ZL21stbi__zdefault_length, symObjAddr: 0x3A8D0, symBinAddr: 0x10003CCB8, symSize: 0x0 }
  - { offset: 0xE63, size: 0x8, addend: 0x0, symName: __ZL23stbi__zdefault_distance, symObjAddr: 0x3A9F0, symBinAddr: 0x10003CDD8, symSize: 0x0 }
  - { offset: 0xE7C, size: 0x8, addend: 0x0, symName: __ZL27stbi__compute_huffman_codesP10stbi__zbuf, symObjAddr: 0x1BE64, symBinAddr: 0x10001F1D8, symSize: 0x3D0 }
  - { offset: 0xEA7, size: 0x8, addend: 0x0, symName: __ZZL27stbi__compute_huffman_codesP10stbi__zbufE15length_dezigzag, symObjAddr: 0x3AA10, symBinAddr: 0x10003CDF8, symSize: 0x0 }
  - { offset: 0xFB2, size: 0x8, addend: 0x0, symName: __ZL18stbi__zlength_base, symObjAddr: 0x3AA24, symBinAddr: 0x10003CE0C, symSize: 0x0 }
  - { offset: 0xFD8, size: 0x8, addend: 0x0, symName: __ZL19stbi__zlength_extra, symObjAddr: 0x3AAA0, symBinAddr: 0x10003CE88, symSize: 0x0 }
  - { offset: 0xFF2, size: 0x8, addend: 0x0, symName: __ZL16stbi__zdist_base, symObjAddr: 0x3AB1C, symBinAddr: 0x10003CF04, symSize: 0x0 }
  - { offset: 0x1018, size: 0x8, addend: 0x0, symName: __ZL17stbi__zdist_extra, symObjAddr: 0x3AB9C, symBinAddr: 0x10003CF84, symSize: 0x0 }
  - { offset: 0x1032, size: 0x8, addend: 0x0, symName: __ZL34stbi__unpremultiply_on_load_global, symObjAddr: 0xEF174, symBinAddr: 0x1000441FC, symSize: 0x0 }
  - { offset: 0x104C, size: 0x8, addend: 0x0, symName: __ZL27stbi__de_iphone_flag_global, symObjAddr: 0xEF178, symBinAddr: 0x100044200, symSize: 0x0 }
  - { offset: 0x1066, size: 0x8, addend: 0x0, symName: __ZL33stbi__unpremultiply_on_load_local, symObjAddr: 0x39CC0, symBinAddr: 0x1000440E0, symSize: 0x0 }
  - { offset: 0x1081, size: 0x8, addend: 0x0, symName: __ZL31stbi__unpremultiply_on_load_set, symObjAddr: 0x39CD8, symBinAddr: 0x1000440F8, symSize: 0x0 }
  - { offset: 0x109C, size: 0x8, addend: 0x0, symName: __ZL26stbi__de_iphone_flag_local, symObjAddr: 0x39CF0, symBinAddr: 0x100044110, symSize: 0x0 }
  - { offset: 0x10B7, size: 0x8, addend: 0x0, symName: __ZL24stbi__de_iphone_flag_set, symObjAddr: 0x39D08, symBinAddr: 0x100044128, symSize: 0x0 }
  - { offset: 0x6A23, size: 0x8, addend: 0x0, symName: __ZNSt3__124__put_character_sequenceB8ne180100IcNS_11char_traitsIcEEEERNS_13basic_ostreamIT_T0_EES7_PKS4_m, symObjAddr: 0x21BB0, symBinAddr: 0x100024F24, symSize: 0x1EC }
  - { offset: 0x94BE, size: 0x8, addend: 0x0, symName: __ZNSt3__16__math4fmaxB8ne180100IidLi0EEENS_9__promoteIT_T0_vE4typeES3_S4_, symObjAddr: 0x26260, symBinAddr: 0x1000295D4, symSize: 0x38 }
  - { offset: 0x951B, size: 0x8, addend: 0x0, symName: __ZNSt3__16__math3powB8ne180100IdiLi0EEENS_9__promoteIT_T0_vE4typeES3_S4_, symObjAddr: 0x2939C, symBinAddr: 0x10002C710, symSize: 0x38 }
  - { offset: 0x9578, size: 0x8, addend: 0x0, symName: __ZNSt3__16__math5ldexpB8ne180100Efi, symObjAddr: 0x1AE24, symBinAddr: 0x10001E198, symSize: 0x1C }
  - { offset: 0x95B2, size: 0x8, addend: 0x0, symName: __ZNSt3__16__math3powB8ne180100Eff, symObjAddr: 0x1AE40, symBinAddr: 0x10001E1B4, symSize: 0x2C }
  - { offset: 0x95EC, size: 0x8, addend: 0x0, symName: __ZNSt3__16__math4fmaxB8ne180100IiEEddd, symObjAddr: 0x265C4, symBinAddr: 0x100029938, symSize: 0x20 }
  - { offset: 0x962B, size: 0x8, addend: 0x0, symName: __ZNSt3__16__math3powB8ne180100IiEEddd, symObjAddr: 0x293D4, symBinAddr: 0x10002C748, symSize: 0x2C }
  - { offset: 0xA9AF, size: 0x8, addend: 0x0, symName: __ZNSt3__111__introsortINS_17_ClassicAlgPolicyERPFbNS_10shared_ptrI8hittableEES4_EPS4_Lb0EEEvT1_S9_T0_NS_15iterator_traitsIS9_E15difference_typeEb, symObjAddr: 0x2C6E8, symBinAddr: 0x10002FA5C, symSize: 0x638 }
  - { offset: 0xAAD7, size: 0x8, addend: 0x0, symName: __ZNSt3__126__insertion_sort_unguardedB8ne180100INS_17_ClassicAlgPolicyERPFbNS_10shared_ptrI8hittableEES4_EPS4_EEvT1_S9_T0_, symObjAddr: 0x2D160, symBinAddr: 0x1000304D4, symSize: 0x234 }
  - { offset: 0xABB1, size: 0x8, addend: 0x0, symName: __ZNSt3__111__sift_downB8ne180100INS_17_ClassicAlgPolicyERPFbNS_10shared_ptrI8hittableEES4_EPS4_EEvT1_OT0_NS_15iterator_traitsIS9_E15difference_typeES9_, symObjAddr: 0x2F4DC, symBinAddr: 0x100032850, symSize: 0x530 }
  - { offset: 0xAC5F, size: 0x8, addend: 0x0, symName: __ZNSt3__117__floyd_sift_downB8ne180100INS_17_ClassicAlgPolicyERPFbNS_10shared_ptrI8hittableEES4_EPS4_EET1_S9_OT0_NS_15iterator_traitsIS9_E15difference_typeE, symObjAddr: 0x2FBEC, symBinAddr: 0x100032F60, symSize: 0x210 }
  - { offset: 0xACF7, size: 0x8, addend: 0x0, symName: __ZNSt3__131__partition_with_equals_on_leftB8ne180100INS_17_ClassicAlgPolicyEPNS_10shared_ptrI8hittableEERPFbS4_S4_EEET0_S9_S9_T1_, symObjAddr: 0x2D7B8, symBinAddr: 0x100030B2C, symSize: 0x558 }
  - { offset: 0xADB4, size: 0x8, addend: 0x0, symName: __ZNSt3__118__bitset_partitionB8ne180100INS_17_ClassicAlgPolicyEPNS_10shared_ptrI8hittableEERPFbS4_S4_EEENS_4pairIT0_bEESA_SA_T1_, symObjAddr: 0x2DD10, symBinAddr: 0x100031084, symSize: 0x5B4 }
  - { offset: 0xAEB2, size: 0x8, addend: 0x0, symName: __ZNSt3__124__swap_bitmap_pos_withinB8ne180100INS_17_ClassicAlgPolicyEPNS_10shared_ptrI8hittableEEEEvRT0_S7_RyS8_, symObjAddr: 0x30738, symBinAddr: 0x100033AAC, symSize: 0x1E0 }
  - { offset: 0xAF7F, size: 0x8, addend: 0x0, symName: __ZNSt3__132__partition_with_equals_on_rightB8ne180100INS_17_ClassicAlgPolicyEPNS_10shared_ptrI8hittableEERPFbS4_S4_EEENS_4pairIT0_bEESA_SA_T1_, symObjAddr: 0x2E2C4, symBinAddr: 0x100031638, symSize: 0x500 }
  - { offset: 0xB04D, size: 0x8, addend: 0x0, symName: __ZNSt3__127__insertion_sort_incompleteB8ne180100INS_17_ClassicAlgPolicyERPFbNS_10shared_ptrI8hittableEES4_EPS4_EEbT1_S9_T0_, symObjAddr: 0x2E7C4, symBinAddr: 0x100031B38, symSize: 0x530 }
  - { offset: 0xD2F9, size: 0x8, addend: 0x0, symName: __ZNSt3__1lsB8ne180100INS_11char_traitsIcEEEERNS_13basic_ostreamIcT_EES6_c, symObjAddr: 0x2E4, symBinAddr: 0x100003658, symSize: 0x34 }
  - { offset: 0xD33F, size: 0x8, addend: 0x0, symName: __ZNSt3__111make_sharedB8ne180100I15checker_textureJd4vec3S2_EvEENS_10shared_ptrIT_EEDpOT0_, symObjAddr: 0x3638, symBinAddr: 0x1000069AC, symSize: 0x50 }
  - { offset: 0xD3AA, size: 0x8, addend: 0x0, symName: __ZNSt3__111make_sharedB8ne180100I6sphereJ4vec3iNS_10shared_ptrI10lambertianEEEvEENS3_IT_EEDpOT0_, symObjAddr: 0x374C, symBinAddr: 0x100006AC0, symSize: 0x50 }
  - { offset: 0xD415, size: 0x8, addend: 0x0, symName: __ZNSt3__111make_sharedB8ne180100I10lambertianJRNS_10shared_ptrI15checker_textureEEEvEENS2_IT_EEDpOT0_, symObjAddr: 0x379C, symBinAddr: 0x100006B10, symSize: 0x40 }
  - { offset: 0xD890, size: 0x8, addend: 0x0, symName: __ZNSt3__111make_sharedB8ne180100I10lambertianJR4vec3EvEENS_10shared_ptrIT_EEDpOT0_, symObjAddr: 0x3A38, symBinAddr: 0x100006DAC, symSize: 0x40 }
  - { offset: 0xD8D3, size: 0x8, addend: 0x0, symName: __ZNSt3__111make_sharedB8ne180100I6sphereJR4vec3S3_dRNS_10shared_ptrI8materialEEEvEENS4_IT_EEDpOT0_, symObjAddr: 0x3B84, symBinAddr: 0x100006EF8, symSize: 0x58 }
  - { offset: 0xD952, size: 0x8, addend: 0x0, symName: __ZNSt3__111make_sharedB8ne180100I5metalJR4vec3RdEvEENS_10shared_ptrIT_EEDpOT0_, symObjAddr: 0x3C48, symBinAddr: 0x100006FBC, symSize: 0x48 }
  - { offset: 0xDBC5, size: 0x8, addend: 0x0, symName: __ZNSt3__111make_sharedB8ne180100I6sphereJR4vec3dRNS_10shared_ptrI8materialEEEvEENS4_IT_EEDpOT0_, symObjAddr: 0x3D0C, symBinAddr: 0x100007080, symSize: 0x50 }
  - { offset: 0xDC30, size: 0x8, addend: 0x0, symName: __ZNSt3__111make_sharedB8ne180100I10dielectricJdEvEENS_10shared_ptrIT_EEDpOT0_, symObjAddr: 0x3D5C, symBinAddr: 0x1000070D0, symSize: 0x40 }
  - { offset: 0xDE8F, size: 0x8, addend: 0x0, symName: __ZNSt3__111make_sharedB8ne180100I6sphereJ4vec3dRNS_10shared_ptrI10dielectricEEEvEENS3_IT_EEDpOT0_, symObjAddr: 0x3E44, symBinAddr: 0x1000071B8, symSize: 0x50 }
  - { offset: 0xDEFA, size: 0x8, addend: 0x0, symName: __ZNSt3__111make_sharedB8ne180100I10lambertianJ4vec3EvEENS_10shared_ptrIT_EEDpOT0_, symObjAddr: 0x3E94, symBinAddr: 0x100007208, symSize: 0x40 }
  - { offset: 0xDF3D, size: 0x8, addend: 0x0, symName: __ZNSt3__111make_sharedB8ne180100I6sphereJ4vec3dRNS_10shared_ptrI10lambertianEEEvEENS3_IT_EEDpOT0_, symObjAddr: 0x3ED4, symBinAddr: 0x100007248, symSize: 0x50 }
  - { offset: 0xDFA8, size: 0x8, addend: 0x0, symName: __ZNSt3__111make_sharedB8ne180100I5metalJ4vec3dEvEENS_10shared_ptrIT_EEDpOT0_, symObjAddr: 0x3F24, symBinAddr: 0x100007298, symSize: 0x48 }
  - { offset: 0xDFFF, size: 0x8, addend: 0x0, symName: __ZNSt3__111make_sharedB8ne180100I6sphereJ4vec3dRNS_10shared_ptrI5metalEEEvEENS3_IT_EEDpOT0_, symObjAddr: 0x3F6C, symBinAddr: 0x1000072E0, symSize: 0x50 }
  - { offset: 0xE06A, size: 0x8, addend: 0x0, symName: __ZNSt3__111make_sharedB8ne180100I8bvh_nodeJR13hittable_listEvEENS_10shared_ptrIT_EEDpOT0_, symObjAddr: 0x3FBC, symBinAddr: 0x100007330, symSize: 0x40 }
  - { offset: 0xE4E5, size: 0x8, addend: 0x0, symName: __ZNSt3__111make_sharedB8ne180100I13image_textureJRA13_KcEvEENS_10shared_ptrIT_EEDpOT0_, symObjAddr: 0x48AC, symBinAddr: 0x100007C20, symSize: 0x40 }
  - { offset: 0xE528, size: 0x8, addend: 0x0, symName: __ZNSt3__111make_sharedB8ne180100I10lambertianJRNS_10shared_ptrI13image_textureEEEvEENS2_IT_EEDpOT0_, symObjAddr: 0x48EC, symBinAddr: 0x100007C60, symSize: 0x40 }
  - { offset: 0xE56B, size: 0x8, addend: 0x0, symName: __ZNSt3__111make_sharedB8ne180100I6sphereJ4vec3iRNS_10shared_ptrI10lambertianEEEvEENS3_IT_EEDpOT0_, symObjAddr: 0x492C, symBinAddr: 0x100007CA0, symSize: 0x50 }
  - { offset: 0xE7F2, size: 0x8, addend: 0x0, symName: __ZNSt3__111make_sharedB8ne180100I13noise_textureJiEvEENS_10shared_ptrIT_EEDpOT0_, symObjAddr: 0x4CB4, symBinAddr: 0x100008028, symSize: 0x40 }
  - { offset: 0xE835, size: 0x8, addend: 0x0, symName: __ZNSt3__111make_sharedB8ne180100I10lambertianJRNS_10shared_ptrI13noise_textureEEEvEENS2_IT_EEDpOT0_, symObjAddr: 0x4CF4, symBinAddr: 0x100008068, symSize: 0x40 }
  - { offset: 0xEA94, size: 0x8, addend: 0x0, symName: __ZNSt3__111make_sharedB8ne180100I4quadJ4vec3S2_S2_RNS_10shared_ptrI10lambertianEEEvEENS3_IT_EEDpOT0_, symObjAddr: 0x5394, symBinAddr: 0x100008708, symSize: 0x58 }
  - { offset: 0xED2F, size: 0x8, addend: 0x0, symName: __ZNSt3__111make_sharedB8ne180100I3triJ4vec3S2_S2_RNS_10shared_ptrI10lambertianEEEvEENS3_IT_EEDpOT0_, symObjAddr: 0x5A80, symBinAddr: 0x100008DF4, symSize: 0x58 }
  - { offset: 0xEFCA, size: 0x8, addend: 0x0, symName: __ZNSt3__111make_sharedB8ne180100I7ellipseJ4vec3S2_S2_RNS_10shared_ptrI10lambertianEEEvEENS3_IT_EEDpOT0_, symObjAddr: 0x6220, symBinAddr: 0x100009594, symSize: 0x58 }
  - { offset: 0xF265, size: 0x8, addend: 0x0, symName: __ZNSt3__111make_sharedB8ne180100I7annulusJ4vec3S2_S2_dRNS_10shared_ptrI10lambertianEEEvEENS3_IT_EEDpOT0_, symObjAddr: 0x6A0C, symBinAddr: 0x100009D80, symSize: 0x60 }
  - { offset: 0xF514, size: 0x8, addend: 0x0, symName: __ZNSt3__112__to_addressB8ne180100INS_10shared_ptrI8hittableEEEEPT_S5_, symObjAddr: 0x1E860, symBinAddr: 0x100021BD4, symSize: 0x14 }
  - { offset: 0xF549, size: 0x8, addend: 0x0, symName: __ZNSt3__119__libcpp_deallocateB8ne180100EPvmm, symObjAddr: 0x1E8DC, symBinAddr: 0x100021C50, symSize: 0x60 }
  - { offset: 0xF5AE, size: 0x8, addend: 0x0, symName: __ZNSt3__124__is_overaligned_for_newB8ne180100Em, symObjAddr: 0x1E93C, symBinAddr: 0x100021CB0, symSize: 0x20 }
  - { offset: 0xF5DC, size: 0x8, addend: 0x0, symName: __ZNSt3__127__do_deallocate_handle_sizeB8ne180100IJSt11align_val_tEEEvPvmDpT_, symObjAddr: 0x1E95C, symBinAddr: 0x100021CD0, symSize: 0x30 }
  - { offset: 0xF62F, size: 0x8, addend: 0x0, symName: __ZNSt3__127__do_deallocate_handle_sizeB8ne180100IJEEEvPvmDpT_, symObjAddr: 0x1E98C, symBinAddr: 0x100021D00, symSize: 0x28 }
  - { offset: 0xF66D, size: 0x8, addend: 0x0, symName: __ZNSt3__124__libcpp_operator_deleteB8ne180100IJPvSt11align_val_tEEEvDpT_, symObjAddr: 0x1E9B4, symBinAddr: 0x100021D28, symSize: 0x2C }
  - { offset: 0xF6B6, size: 0x8, addend: 0x0, symName: __ZNSt3__124__libcpp_operator_deleteB8ne180100IJPvEEEvDpT_, symObjAddr: 0x1E9E0, symBinAddr: 0x100021D54, symSize: 0x24 }
  - { offset: 0xF6EB, size: 0x8, addend: 0x0, symName: __ZNSt3__1neB8ne180100IPKNS_10shared_ptrI8hittableEEEEbRKNS_11__wrap_iterIT_EESA_, symObjAddr: 0x1EB28, symBinAddr: 0x100021E9C, symSize: 0x34 }
  - { offset: 0xF72E, size: 0x8, addend: 0x0, symName: __ZNSt3__1eqB8ne180100IPKNS_10shared_ptrI8hittableEEEEbRKNS_11__wrap_iterIT_EESA_, symObjAddr: 0x1ED64, symBinAddr: 0x1000220D8, symSize: 0x48 }
  - { offset: 0xF771, size: 0x8, addend: 0x0, symName: __ZNSt3__134__libcpp_atomic_refcount_incrementB8ne180100IlEET_RS1_, symObjAddr: 0x1EF48, symBinAddr: 0x1000222BC, symSize: 0x30 }
  - { offset: 0xF7A6, size: 0x8, addend: 0x0, symName: __ZNSt3__14swapB8ne180100IP8materialEENS_9enable_ifIXaasr21is_move_constructibleIT_EE5valuesr18is_move_assignableIS4_EE5valueEvE4typeERS4_S7_, symObjAddr: 0x1EF78, symBinAddr: 0x1000222EC, symSize: 0x3C }
  - { offset: 0xF7F7, size: 0x8, addend: 0x0, symName: __ZNSt3__14swapB8ne180100IPNS_19__shared_weak_countEEENS_9enable_ifIXaasr21is_move_constructibleIT_EE5valuesr18is_move_assignableIS4_EE5valueEvE4typeERS4_S7_, symObjAddr: 0x1EFB4, symBinAddr: 0x100022328, symSize: 0x3C }
  - { offset: 0xF848, size: 0x8, addend: 0x0, symName: __ZNSt3__13maxB8ne180100ImEERKT_S3_S3_, symObjAddr: 0x1F7A8, symBinAddr: 0x100022B1C, symSize: 0x2C }
  - { offset: 0xF88B, size: 0x8, addend: 0x0, symName: __ZNSt3__13minB8ne180100ImEERKT_S3_S3_, symObjAddr: 0x1F7D4, symBinAddr: 0x100022B48, symSize: 0x2C }
  - { offset: 0xFAB8, size: 0x8, addend: 0x0, symName: __ZNSt3__13minB8ne180100ImNS_6__lessIvvEEEERKT_S5_S5_T0_, symObjAddr: 0x1F860, symBinAddr: 0x100022BD4, symSize: 0x54 }
  - { offset: 0xFB57, size: 0x8, addend: 0x0, symName: __ZNSt3__120__throw_length_errorB8ne180100EPKc, symObjAddr: 0x1F93C, symBinAddr: 0x100022CB0, symSize: 0x64 }
  - { offset: 0xFB7F, size: 0x8, addend: 0x0, symName: __ZNSt3__13maxB8ne180100ImNS_6__lessIvvEEEERKT_S5_S5_T0_, symObjAddr: 0x1FA18, symBinAddr: 0x100022D8C, symSize: 0x54 }
  - { offset: 0xFBD9, size: 0x8, addend: 0x0, symName: __ZNSt3__119__allocate_at_leastB8ne180100INS_9allocatorINS_10shared_ptrI8hittableEEEEEENS_19__allocation_resultINS_16allocator_traitsIT_E7pointerEEERS8_m, symObjAddr: 0x1FB7C, symBinAddr: 0x100022EF0, symSize: 0x40 }
  - { offset: 0xFC1C, size: 0x8, addend: 0x0, symName: __ZNSt3__117__libcpp_allocateB8ne180100Emm, symObjAddr: 0x1FD00, symBinAddr: 0x100023074, symSize: 0x60 }
  - { offset: 0xFC76, size: 0x8, addend: 0x0, symName: __ZNSt3__121__libcpp_operator_newB8ne180100IJmSt11align_val_tEEEPvDpT_, symObjAddr: 0x1FD60, symBinAddr: 0x1000230D4, symSize: 0x2C }
  - { offset: 0xFCC3, size: 0x8, addend: 0x0, symName: __ZNSt3__121__libcpp_operator_newB8ne180100IJmEEEPvDpT_, symObjAddr: 0x1FD8C, symBinAddr: 0x100023100, symSize: 0x24 }
  - { offset: 0xFCFC, size: 0x8, addend: 0x0, symName: __ZNSt3__142__uninitialized_allocator_move_if_noexceptB8ne180100INS_9allocatorINS_10shared_ptrI8hittableEEEENS_16reverse_iteratorIPS4_EES8_S8_EET2_RT_T0_T1_S9_, symObjAddr: 0x1FE14, symBinAddr: 0x100023188, symSize: 0x12C }
  - { offset: 0xFD9C, size: 0x8, addend: 0x0, symName: __ZNSt3__14swapB8ne180100IPNS_10shared_ptrI8hittableEEEENS_9enable_ifIXaasr21is_move_constructibleIT_EE5valuesr18is_move_assignableIS6_EE5valueEvE4typeERS6_S9_, symObjAddr: 0x1FF8C, symBinAddr: 0x100023300, symSize: 0x3C }
  - { offset: 0xFDED, size: 0x8, addend: 0x0, symName: __ZNSt3__122__make_exception_guardB8ne180100INS_29_AllocatorDestroyRangeReverseINS_9allocatorINS_10shared_ptrI8hittableEEEENS_16reverse_iteratorIPS5_EEEEEENS_28__exception_guard_exceptionsIT_EESC_, symObjAddr: 0x1FFDC, symBinAddr: 0x100023350, symSize: 0x4C }
  - { offset: 0xFE23, size: 0x8, addend: 0x0, symName: __ZNSt3__1neB8ne180100IPNS_10shared_ptrI8hittableEES4_EEbRKNS_16reverse_iteratorIT_EERKNS5_IT0_EE, symObjAddr: 0x2006C, symBinAddr: 0x1000233E0, symSize: 0x48 }
  - { offset: 0xFE6F, size: 0x8, addend: 0x0, symName: __ZNSt3__112__to_addressB8ne180100INS_16reverse_iteratorIPNS_10shared_ptrI8hittableEEEEvEEu7__decayIDTclsr19__to_address_helperIT_EE6__callclsr3stdE7declvalIRKS7_EEEEES9_, symObjAddr: 0x200E8, symBinAddr: 0x10002345C, symSize: 0x24 }
  - { offset: 0xFECE, size: 0x8, addend: 0x0, symName: __ZNSt3__119__allocator_destroyB8ne180100INS_9allocatorINS_10shared_ptrI8hittableEEEENS_16reverse_iteratorINS6_IPS4_EEEES9_EEvRT_T0_T1_, symObjAddr: 0x2043C, symBinAddr: 0x1000237B0, symSize: 0x70 }
  - { offset: 0xFF33, size: 0x8, addend: 0x0, symName: __ZNSt3__1neB8ne180100INS_16reverse_iteratorIPNS_10shared_ptrI8hittableEEEES6_EEbRKNS1_IT_EERKNS1_IT0_EE, symObjAddr: 0x204E8, symBinAddr: 0x10002385C, symSize: 0x60 }
  - { offset: 0xFF7F, size: 0x8, addend: 0x0, symName: __ZNSt3__112__to_addressB8ne180100INS_16reverse_iteratorINS1_IPNS_10shared_ptrI8hittableEEEEEEvEEu7__decayIDTclsr19__to_address_helperIT_EE6__callclsr3stdE7declvalIRKS8_EEEEESA_, symObjAddr: 0x20548, symBinAddr: 0x1000238BC, symSize: 0x24 }
  - { offset: 0xFFDE, size: 0x8, addend: 0x0, symName: __ZNSt3__1lsB8ne180100INS_11char_traitsIcEEEERNS_13basic_ostreamIcT_EES6_PKc, symObjAddr: 0x21384, symBinAddr: 0x1000246F8, symSize: 0x48 }
  - { offset: 0x10024, size: 0x8, addend: 0x0, symName: __ZNSt3__15flushB8ne180100IcNS_11char_traitsIcEEEERNS_13basic_ostreamIT_T0_EES7_, symObjAddr: 0x213F8, symBinAddr: 0x10002476C, symSize: 0x28 }
  - { offset: 0x10064, size: 0x8, addend: 0x0, symName: __ZNSt3__116__pad_and_outputB8ne180100IcNS_11char_traitsIcEEEENS_19ostreambuf_iteratorIT_T0_EES6_PKS4_S8_S8_RNS_8ios_baseES4_, symObjAddr: 0x21DEC, symBinAddr: 0x100025160, symSize: 0x240 }
  - { offset: 0x10133, size: 0x8, addend: 0x0, symName: __ZNSt3__112__to_addressB8ne180100IcEEPT_S2_, symObjAddr: 0x22354, symBinAddr: 0x1000256C8, symSize: 0x14 }
  - { offset: 0x1019B, size: 0x8, addend: 0x0, symName: __ZNSt3__19use_facetB8ne180100INS_5ctypeIcEEEERKT_RKNS_6localeE, symObjAddr: 0x2260C, symBinAddr: 0x100025980, symSize: 0x2C }
  - { offset: 0x10668, size: 0x8, addend: 0x0, symName: __ZNSt3__118__constexpr_strlenB8ne180100EPKc, symObjAddr: 0x226A4, symBinAddr: 0x100025A18, symSize: 0x24 }
  - { offset: 0x10694, size: 0x8, addend: 0x0, symName: __ZNSt3__134__libcpp_atomic_refcount_decrementB8ne180100IlEET_RS1_, symObjAddr: 0x22AD0, symBinAddr: 0x100025E44, symSize: 0x30 }
  - { offset: 0x106C9, size: 0x8, addend: 0x0, symName: __ZNSt3__115allocate_sharedB8ne180100I15checker_textureNS_9allocatorIS1_EEJd4vec3S4_EvEENS_10shared_ptrIT_EERKT0_DpOT1_, symObjAddr: 0x22BA8, symBinAddr: 0x100025F1C, symSize: 0xA8 }
  - { offset: 0x10B3B, size: 0x8, addend: 0x0, symName: __ZNSt3__111make_sharedB8ne180100I11solid_colorJRK4vec3EvEENS_10shared_ptrIT_EEDpOT0_, symObjAddr: 0x2346C, symBinAddr: 0x1000267E0, symSize: 0x40 }
  - { offset: 0x10D9A, size: 0x8, addend: 0x0, symName: __ZNSt3__115allocate_sharedB8ne180100I11solid_colorNS_9allocatorIS1_EEJRK4vec3EvEENS_10shared_ptrIT_EERKT0_DpOT1_, symObjAddr: 0x2357C, symBinAddr: 0x1000268F0, symSize: 0x98 }
  - { offset: 0x11235, size: 0x8, addend: 0x0, symName: __ZNSt3__115allocate_sharedB8ne180100I10lambertianNS_9allocatorIS1_EEJRNS_10shared_ptrI15checker_textureEEEvEENS4_IT_EERKT0_DpOT1_, symObjAddr: 0x2489C, symBinAddr: 0x100027C10, symSize: 0x98 }
  - { offset: 0x11761, size: 0x8, addend: 0x0, symName: __ZNSt3__115allocate_sharedB8ne180100I6sphereNS_9allocatorIS1_EEJ4vec3iNS_10shared_ptrI10lambertianEEEvEENS5_IT_EERKT0_DpOT1_, symObjAddr: 0x25818, symBinAddr: 0x100028B8C, symSize: 0xA8 }
  - { offset: 0x11DAE, size: 0x8, addend: 0x0, symName: __ZNSt3__115allocate_sharedB8ne180100I10lambertianNS_9allocatorIS1_EEJR4vec3EvEENS_10shared_ptrIT_EERKT0_DpOT1_, symObjAddr: 0x26EA4, symBinAddr: 0x10002A218, symSize: 0x98 }
  - { offset: 0x11E27, size: 0x8, addend: 0x0, symName: __ZNSt3__115allocate_sharedB8ne180100I6sphereNS_9allocatorIS1_EEJR4vec3S5_dRNS_10shared_ptrI8materialEEEvEENS6_IT_EERKT0_DpOT1_, symObjAddr: 0x27158, symBinAddr: 0x10002A4CC, symSize: 0xB0 }
  - { offset: 0x11EDC, size: 0x8, addend: 0x0, symName: __ZNSt3__115allocate_sharedB8ne180100I5metalNS_9allocatorIS1_EEJR4vec3RdEvEENS_10shared_ptrIT_EERKT0_DpOT1_, symObjAddr: 0x277A4, symBinAddr: 0x10002AB18, symSize: 0xA0 }
  - { offset: 0x1239D, size: 0x8, addend: 0x0, symName: __ZNSt3__115allocate_sharedB8ne180100I6sphereNS_9allocatorIS1_EEJR4vec3dRNS_10shared_ptrI8materialEEEvEENS6_IT_EERKT0_DpOT1_, symObjAddr: 0x28588, symBinAddr: 0x10002B8FC, symSize: 0xA8 }
  - { offset: 0x1243F, size: 0x8, addend: 0x0, symName: __ZNSt3__115allocate_sharedB8ne180100I10dielectricNS_9allocatorIS1_EEJdEvEENS_10shared_ptrIT_EERKT0_DpOT1_, symObjAddr: 0x2881C, symBinAddr: 0x10002BB90, symSize: 0x98 }
  - { offset: 0x128A7, size: 0x8, addend: 0x0, symName: __ZNSt3__115allocate_sharedB8ne180100I6sphereNS_9allocatorIS1_EEJ4vec3dRNS_10shared_ptrI10dielectricEEEvEENS5_IT_EERKT0_DpOT1_, symObjAddr: 0x297C8, symBinAddr: 0x10002CB3C, symSize: 0xA8 }
  - { offset: 0x12949, size: 0x8, addend: 0x0, symName: __ZNSt3__115allocate_sharedB8ne180100I10lambertianNS_9allocatorIS1_EEJ4vec3EvEENS_10shared_ptrIT_EERKT0_DpOT1_, symObjAddr: 0x29B00, symBinAddr: 0x10002CE74, symSize: 0x98 }
  - { offset: 0x129C2, size: 0x8, addend: 0x0, symName: __ZNSt3__115allocate_sharedB8ne180100I6sphereNS_9allocatorIS1_EEJ4vec3dRNS_10shared_ptrI10lambertianEEEvEENS5_IT_EERKT0_DpOT1_, symObjAddr: 0x29CEC, symBinAddr: 0x10002D060, symSize: 0xA8 }
  - { offset: 0x12A64, size: 0x8, addend: 0x0, symName: __ZNSt3__115allocate_sharedB8ne180100I5metalNS_9allocatorIS1_EEJ4vec3dEvEENS_10shared_ptrIT_EERKT0_DpOT1_, symObjAddr: 0x2A024, symBinAddr: 0x10002D398, symSize: 0xA0 }
  - { offset: 0x12AF1, size: 0x8, addend: 0x0, symName: __ZNSt3__115allocate_sharedB8ne180100I6sphereNS_9allocatorIS1_EEJ4vec3dRNS_10shared_ptrI5metalEEEvEENS5_IT_EERKT0_DpOT1_, symObjAddr: 0x2A23C, symBinAddr: 0x10002D5B0, symSize: 0xA8 }
  - { offset: 0x12B93, size: 0x8, addend: 0x0, symName: __ZNSt3__115allocate_sharedB8ne180100I8bvh_nodeNS_9allocatorIS1_EEJR13hittable_listEvEENS_10shared_ptrIT_EERKT0_DpOT1_, symObjAddr: 0x2A574, symBinAddr: 0x10002D8E8, symSize: 0x98 }
  - { offset: 0x1300D, size: 0x8, addend: 0x0, symName: __ZNSt3__122__make_exception_guardB8ne180100INS_6vectorINS_10shared_ptrI8hittableEENS_9allocatorIS4_EEE16__destroy_vectorEEENS_28__exception_guard_exceptionsIT_EESA_, symObjAddr: 0x2B01C, symBinAddr: 0x10002E390, symSize: 0x40 }
  - { offset: 0x13042, size: 0x8, addend: 0x0, symName: __ZNSt3__130__uninitialized_allocator_copyB8ne180100INS_9allocatorINS_10shared_ptrI8hittableEEEEPS4_S6_S6_EET2_RT_T0_T1_S7_, symObjAddr: 0x2B234, symBinAddr: 0x10002E5A8, symSize: 0x80 }
  - { offset: 0x130DF, size: 0x8, addend: 0x0, symName: __ZNSt3__114__unwrap_rangeB8ne180100IPNS_10shared_ptrI8hittableEES4_EENS_4pairIT0_S6_EET_S8_, symObjAddr: 0x2B2B4, symBinAddr: 0x10002E628, symSize: 0x60 }
  - { offset: 0x1312B, size: 0x8, addend: 0x0, symName: __ZNSt3__135__uninitialized_allocator_copy_implB8ne180100INS_9allocatorINS_10shared_ptrI8hittableEEEEPS4_S6_S6_EET2_RT_T0_T1_S7_, symObjAddr: 0x2B314, symBinAddr: 0x10002E688, symSize: 0xF4 }
  - { offset: 0x131C9, size: 0x8, addend: 0x0, symName: __ZNSt3__113__unwrap_iterB8ne180100IPNS_10shared_ptrI8hittableEENS_18__unwrap_iter_implIS4_Lb1EEELi0EEEDTclsrT0_8__unwrapclsr3stdE7declvalIT_EEEES8_, symObjAddr: 0x2B408, symBinAddr: 0x10002E77C, symSize: 0x24 }
  - { offset: 0x1320D, size: 0x8, addend: 0x0, symName: __ZNSt3__113__rewrap_iterB8ne180100IPNS_10shared_ptrI8hittableEES4_NS_18__unwrap_iter_implIS4_Lb1EEEEET_S7_T0_, symObjAddr: 0x2B42C, symBinAddr: 0x10002E7A0, symSize: 0x3C }
  - { offset: 0x13262, size: 0x8, addend: 0x0, symName: __ZNSt3__19make_pairB8ne180100IPNS_10shared_ptrI8hittableEES4_EENS_4pairINS_18__unwrap_ref_decayIT_E4typeENS6_IT0_E4typeEEEOS7_OSA_, symObjAddr: 0x2B468, symBinAddr: 0x10002E7DC, symSize: 0x38 }
  - { offset: 0x13385, size: 0x8, addend: 0x0, symName: __ZNSt3__122__make_exception_guardB8ne180100INS_29_AllocatorDestroyRangeReverseINS_9allocatorINS_10shared_ptrI8hittableEEEEPS5_EEEENS_28__exception_guard_exceptionsIT_EESA_, symObjAddr: 0x2B510, symBinAddr: 0x10002E884, symSize: 0x4C }
  - { offset: 0x133BB, size: 0x8, addend: 0x0, symName: __ZNSt3__119__allocator_destroyB8ne180100INS_9allocatorINS_10shared_ptrI8hittableEEEENS_16reverse_iteratorIPS4_EES8_EEvRT_T0_T1_, symObjAddr: 0x2B7A0, symBinAddr: 0x10002EB14, symSize: 0x70 }
  - { offset: 0x13471, size: 0x8, addend: 0x0, symName: __ZNSt3__14sortB8ne180100INS_11__wrap_iterIPNS_10shared_ptrI8hittableEEEEPFbS4_S4_EEEvT_S9_T0_, symObjAddr: 0x2C034, symBinAddr: 0x10002F3A8, symSize: 0x48 }
  - { offset: 0x134CB, size: 0x8, addend: 0x0, symName: __ZNSt3__15beginB8ne180100INS_6vectorINS_10shared_ptrI8hittableEENS_9allocatorIS4_EEEEEEDTcldtfp_5beginEERT_, symObjAddr: 0x2C07C, symBinAddr: 0x10002F3F0, symSize: 0x2C }
  - { offset: 0x13500, size: 0x8, addend: 0x0, symName: __ZNSt3__111make_sharedB8ne180100I8bvh_nodeJRNS_6vectorINS_10shared_ptrI8hittableEENS_9allocatorIS5_EEEERmSA_EvEENS3_IT_EEDpOT0_, symObjAddr: 0x2C0E4, symBinAddr: 0x10002F458, symSize: 0x50 }
  - { offset: 0x1356B, size: 0x8, addend: 0x0, symName: __ZNSt3__14swapB8ne180100IP8hittableEENS_9enable_ifIXaasr21is_move_constructibleIT_EE5valuesr18is_move_assignableIS4_EE5valueEvE4typeERS4_S7_, symObjAddr: 0x2C4F4, symBinAddr: 0x10002F868, symSize: 0x3C }
  - { offset: 0x135BC, size: 0x8, addend: 0x0, symName: __ZNSt3__111__sort_implB8ne180100INS_17_ClassicAlgPolicyENS_11__wrap_iterIPNS_10shared_ptrI8hittableEEEEPFbS5_S5_EEEvT0_SA_RT1_, symObjAddr: 0x2C530, symBinAddr: 0x10002F8A4, symSize: 0xA8 }
  - { offset: 0x13620, size: 0x8, addend: 0x0, symName: __ZNSt3__123__debug_randomize_rangeB8ne180100INS_17_ClassicAlgPolicyENS_11__wrap_iterIPNS_10shared_ptrI8hittableEEEES7_EEvT0_T1_, symObjAddr: 0x2C5D8, symBinAddr: 0x10002F94C, symSize: 0x14 }
  - { offset: 0x13671, size: 0x8, addend: 0x0, symName: __ZNSt3__115__sort_dispatchB8ne180100INS_17_ClassicAlgPolicyEPNS_10shared_ptrI8hittableEEPFbS4_S4_EEEvT0_S8_RT1_, symObjAddr: 0x2C5EC, symBinAddr: 0x10002F960, symSize: 0x64 }
  - { offset: 0x136EF, size: 0x8, addend: 0x0, symName: __ZNSt3__113__unwrap_iterB8ne180100INS_11__wrap_iterIPNS_10shared_ptrI8hittableEEEENS_18__unwrap_iter_implIS6_Lb1EEELi0EEEDTclsrT0_8__unwrapclsr3stdE7declvalIT_EEEESA_, symObjAddr: 0x2C650, symBinAddr: 0x10002F9C4, symSize: 0x2C }
  - { offset: 0x13734, size: 0x8, addend: 0x0, symName: __ZNSt3__135__check_strict_weak_ordering_sortedB8ne180100IPNS_10shared_ptrI8hittableEEPFbS3_S3_EEEvT_S7_RT0_, symObjAddr: 0x2C67C, symBinAddr: 0x10002F9F0, symSize: 0x18 }
  - { offset: 0x1378A, size: 0x8, addend: 0x0, symName: __ZNSt3__17__log2iB8ne180100IlEET_S1_, symObjAddr: 0x2C694, symBinAddr: 0x10002FA08, symSize: 0x54 }
  - { offset: 0x137C1, size: 0x8, addend: 0x0, symName: __ZNSt3__112__libcpp_clzB8ne180100Em, symObjAddr: 0x2CD38, symBinAddr: 0x1000300AC, symSize: 0x1C }
  - { offset: 0x138E8, size: 0x8, addend: 0x0, symName: __ZNSt3__124__sort3_maybe_branchlessB8ne180100INS_17_ClassicAlgPolicyERPFbNS_10shared_ptrI8hittableEES4_EPS4_Li0EEEvT1_S9_S9_T0_, symObjAddr: 0x2CD88, symBinAddr: 0x1000300FC, symSize: 0x3C }
  - { offset: 0x1395B, size: 0x8, addend: 0x0, symName: __ZNSt3__124__sort4_maybe_branchlessB8ne180100INS_17_ClassicAlgPolicyERPFbNS_10shared_ptrI8hittableEES4_EPS4_Li0EEEvT1_S9_S9_S9_T0_, symObjAddr: 0x2CDC4, symBinAddr: 0x100030138, symSize: 0x44 }
  - { offset: 0x139DC, size: 0x8, addend: 0x0, symName: __ZNSt3__124__sort5_maybe_branchlessB8ne180100INS_17_ClassicAlgPolicyERPFbNS_10shared_ptrI8hittableEES4_EPS4_Li0EEEvT1_S9_S9_S9_S9_T0_, symObjAddr: 0x2CE08, symBinAddr: 0x10003017C, symSize: 0x4C }
  - { offset: 0x13A72, size: 0x8, addend: 0x0, symName: __ZNSt3__116__insertion_sortB8ne180100INS_17_ClassicAlgPolicyERPFbNS_10shared_ptrI8hittableEES4_EPS4_EEvT1_S9_T0_, symObjAddr: 0x2CE54, symBinAddr: 0x1000301C8, symSize: 0x30C }
  - { offset: 0x13B2B, size: 0x8, addend: 0x0, symName: __ZNSt3__114__partial_sortB8ne180100INS_17_ClassicAlgPolicyERPFbNS_10shared_ptrI8hittableEES4_EPS4_S8_EET1_S9_S9_T2_RT0_, symObjAddr: 0x2D394, symBinAddr: 0x100030708, symSize: 0x94 }
  - { offset: 0x13BB3, size: 0x8, addend: 0x0, symName: __ZNSt3__17__sort3B8ne180100INS_17_ClassicAlgPolicyERPFbNS_10shared_ptrI8hittableEES4_EPS4_EEjT1_S9_S9_T0_, symObjAddr: 0x2D428, symBinAddr: 0x10003079C, symSize: 0x35C }
  - { offset: 0x13C32, size: 0x8, addend: 0x0, symName: __ZNSt3__19iter_swapB8ne180100IPNS_10shared_ptrI8hittableEES4_EEvT_T0_, symObjAddr: 0x2ED0C, symBinAddr: 0x100032080, symSize: 0x2C }
  - { offset: 0x13C7A, size: 0x8, addend: 0x0, symName: __ZNSt3__14swapB8ne180100I8hittableEEvRNS_10shared_ptrIT_EES5_, symObjAddr: 0x2ED38, symBinAddr: 0x1000320AC, symSize: 0x2C }
  - { offset: 0x13CBC, size: 0x8, addend: 0x0, symName: __ZNSt3__17__sort4B8ne180100INS_17_ClassicAlgPolicyERPFbNS_10shared_ptrI8hittableEES4_EPS4_EEvT1_S9_S9_S9_T0_, symObjAddr: 0x2ED64, symBinAddr: 0x1000320D8, symSize: 0x200 }
  - { offset: 0x13D37, size: 0x8, addend: 0x0, symName: __ZNSt3__17__sort5B8ne180100INS_17_ClassicAlgPolicyERPFbNS_10shared_ptrI8hittableEES4_EPS4_EEvT1_S9_S9_S9_S9_T0_, symObjAddr: 0x2EF64, symBinAddr: 0x1000322D8, symSize: 0x298 }
  - { offset: 0x13DCC, size: 0x8, addend: 0x0, symName: __ZNSt3__123__debug_randomize_rangeB8ne180100INS_17_ClassicAlgPolicyEPNS_10shared_ptrI8hittableEES5_EEvT0_T1_, symObjAddr: 0x2F290, symBinAddr: 0x100032604, symSize: 0x14 }
  - { offset: 0x13E1D, size: 0x8, addend: 0x0, symName: __ZNSt3__119__partial_sort_implB8ne180100INS_17_ClassicAlgPolicyERPFbNS_10shared_ptrI8hittableEES4_EPS4_S8_EET1_S9_S9_T2_OT0_, symObjAddr: 0x2F2A4, symBinAddr: 0x100032618, symSize: 0x180 }
  - { offset: 0x13EB3, size: 0x8, addend: 0x0, symName: __ZNSt3__111__make_heapB8ne180100INS_17_ClassicAlgPolicyERPFbNS_10shared_ptrI8hittableEES4_EPS4_EEvT1_S9_OT0_, symObjAddr: 0x2F424, symBinAddr: 0x100032798, symSize: 0xB8 }
  - { offset: 0x13F55, size: 0x8, addend: 0x0, symName: __ZNSt3__111__sort_heapB8ne180100INS_17_ClassicAlgPolicyERPFbNS_10shared_ptrI8hittableEES4_EPS4_EEvT1_S9_OT0_, symObjAddr: 0x2FA0C, symBinAddr: 0x100032D80, symSize: 0xA8 }
  - { offset: 0x13FF7, size: 0x8, addend: 0x0, symName: __ZNSt3__110__pop_heapB8ne180100INS_17_ClassicAlgPolicyEPFbNS_10shared_ptrI8hittableEES4_EPS4_EEvT1_S8_RT0_NS_15iterator_traitsIS8_E15difference_typeE, symObjAddr: 0x2FAB4, symBinAddr: 0x100032E28, symSize: 0x138 }
  - { offset: 0x1409F, size: 0x8, addend: 0x0, symName: __ZNSt3__19__sift_upB8ne180100INS_17_ClassicAlgPolicyERPFbNS_10shared_ptrI8hittableEES4_EPS4_EEvT1_S9_OT0_NS_15iterator_traitsIS9_E15difference_typeE, symObjAddr: 0x2FDFC, symBinAddr: 0x100033170, symSize: 0x228 }
  - { offset: 0x14140, size: 0x8, addend: 0x0, symName: __ZNSt3__122__populate_left_bitsetB8ne180100IRPFbNS_10shared_ptrI8hittableEES3_EPS3_S3_EEvT0_T_RT1_Ry, symObjAddr: 0x30024, symBinAddr: 0x100033398, symSize: 0x128 }
  - { offset: 0x141EB, size: 0x8, addend: 0x0, symName: __ZNSt3__123__populate_right_bitsetB8ne180100IRPFbNS_10shared_ptrI8hittableEES3_EPS3_S3_EEvT0_T_RT1_Ry, symObjAddr: 0x3014C, symBinAddr: 0x1000334C0, symSize: 0x114 }
  - { offset: 0x14296, size: 0x8, addend: 0x0, symName: __ZNSt3__117__swap_bitmap_posB8ne180100INS_17_ClassicAlgPolicyEPNS_10shared_ptrI8hittableEEEEvT0_S6_RyS7_, symObjAddr: 0x30260, symBinAddr: 0x1000335D4, symSize: 0x100 }
  - { offset: 0x14337, size: 0x8, addend: 0x0, symName: __ZNSt3__133__bitset_partition_partial_blocksB8ne180100INS_17_ClassicAlgPolicyERPFbNS_10shared_ptrI8hittableEES4_EPS4_S4_EEvRT1_SA_T0_RT2_RySE_, symObjAddr: 0x30360, symBinAddr: 0x1000336D4, symSize: 0x3D8 }
  - { offset: 0x144A0, size: 0x8, addend: 0x0, symName: __ZNSt3__19make_pairB8ne180100IRPNS_10shared_ptrI8hittableEERbEENS_4pairINS_18__unwrap_ref_decayIT_E4typeENS8_IT0_E4typeEEEOS9_OSC_, symObjAddr: 0x30918, symBinAddr: 0x100033C8C, symSize: 0x38 }
  - { offset: 0x144EF, size: 0x8, addend: 0x0, symName: __ZNSt3__112__libcpp_ctzB8ne180100Ey, symObjAddr: 0x30950, symBinAddr: 0x100033CC4, symSize: 0x20 }
  - { offset: 0x1451B, size: 0x8, addend: 0x0, symName: __ZNSt3__113__libcpp_blsrB8ne180100Ey, symObjAddr: 0x30970, symBinAddr: 0x100033CE4, symSize: 0x2C }
  - { offset: 0x14547, size: 0x8, addend: 0x0, symName: __ZNSt3__112__libcpp_clzB8ne180100Ey, symObjAddr: 0x309D0, symBinAddr: 0x100033D44, symSize: 0x1C }
  - { offset: 0x1469A, size: 0x8, addend: 0x0, symName: __ZNSt3__112__to_addressB8ne180100INS_11__wrap_iterIPNS_10shared_ptrI8hittableEEEEvEEu7__decayIDTclsr19__to_address_helperIT_EE6__callclsr3stdE7declvalIRKS7_EEEEES9_, symObjAddr: 0x30A88, symBinAddr: 0x100033DFC, symSize: 0x24 }
  - { offset: 0x14775, size: 0x8, addend: 0x0, symName: __ZNSt3__115allocate_sharedB8ne180100I8bvh_nodeNS_9allocatorIS1_EEJRNS_6vectorINS_10shared_ptrI8hittableEENS2_IS7_EEEERmSB_EvEENS5_IT_EERKT0_DpOT1_, symObjAddr: 0x30BFC, symBinAddr: 0x100033F70, symSize: 0xA8 }
  - { offset: 0x1484A, size: 0x8, addend: 0x0, symName: __ZNSt3__115allocate_sharedB8ne180100I13image_textureNS_9allocatorIS1_EEJRA13_KcEvEENS_10shared_ptrIT_EERKT0_DpOT1_, symObjAddr: 0x313D0, symBinAddr: 0x100034744, symSize: 0x98 }
  - { offset: 0x14C7F, size: 0x8, addend: 0x0, symName: __ZNSt3__1plB8ne180100IcNS_11char_traitsIcEENS_9allocatorIcEEEENS_12basic_stringIT_T0_T1_EEOS9_PKS6_, symObjAddr: 0x32418, symBinAddr: 0x10003578C, symSize: 0x40 }
  - { offset: 0x14CD7, size: 0x8, addend: 0x0, symName: __ZNSt3__112__to_addressB8ne180100IKcEEPT_S3_, symObjAddr: 0x325B8, symBinAddr: 0x10003592C, symSize: 0x14 }
  - { offset: 0x14D72, size: 0x8, addend: 0x0, symName: __ZNSt3__115allocate_sharedB8ne180100I10lambertianNS_9allocatorIS1_EEJRNS_10shared_ptrI13image_textureEEEvEENS4_IT_EERKT0_DpOT1_, symObjAddr: 0x32EF4, symBinAddr: 0x100036268, symSize: 0x98 }
  - { offset: 0x14DEB, size: 0x8, addend: 0x0, symName: __ZNSt3__115allocate_sharedB8ne180100I6sphereNS_9allocatorIS1_EEJ4vec3iRNS_10shared_ptrI10lambertianEEEvEENS5_IT_EERKT0_DpOT1_, symObjAddr: 0x331C8, symBinAddr: 0x10003653C, symSize: 0xA8 }
  - { offset: 0x14E8D, size: 0x8, addend: 0x0, symName: __ZNSt3__115allocate_sharedB8ne180100I13noise_textureNS_9allocatorIS1_EEJiEvEENS_10shared_ptrIT_EERKT0_DpOT1_, symObjAddr: 0x334D8, symBinAddr: 0x10003684C, symSize: 0x98 }
  - { offset: 0x152F5, size: 0x8, addend: 0x0, symName: __ZNSt3__115allocate_sharedB8ne180100I10lambertianNS_9allocatorIS1_EEJRNS_10shared_ptrI13noise_textureEEEvEENS4_IT_EERKT0_DpOT1_, symObjAddr: 0x349D8, symBinAddr: 0x100037D4C, symSize: 0x98 }
  - { offset: 0x1536E, size: 0x8, addend: 0x0, symName: __ZNSt3__115allocate_sharedB8ne180100I4quadNS_9allocatorIS1_EEJ4vec3S4_S4_RNS_10shared_ptrI10lambertianEEEvEENS5_IT_EERKT0_DpOT1_, symObjAddr: 0x34CAC, symBinAddr: 0x100038020, symSize: 0xB0 }
  - { offset: 0x15830, size: 0x8, addend: 0x0, symName: __ZNSt3__115allocate_sharedB8ne180100I3triNS_9allocatorIS1_EEJ4vec3S4_S4_RNS_10shared_ptrI10lambertianEEEvEENS5_IT_EERKT0_DpOT1_, symObjAddr: 0x35F70, symBinAddr: 0x1000392E4, symSize: 0xB0 }
  - { offset: 0x15CF2, size: 0x8, addend: 0x0, symName: __ZNSt3__115allocate_sharedB8ne180100I7ellipseNS_9allocatorIS1_EEJ4vec3S4_S4_RNS_10shared_ptrI10lambertianEEEvEENS5_IT_EERKT0_DpOT1_, symObjAddr: 0x36D0C, symBinAddr: 0x10003A080, symSize: 0xB0 }
  - { offset: 0x161B4, size: 0x8, addend: 0x0, symName: __ZNSt3__115allocate_sharedB8ne180100I7annulusNS_9allocatorIS1_EEJ4vec3S4_S4_dRNS_10shared_ptrI10lambertianEEEvEENS5_IT_EERKT0_DpOT1_, symObjAddr: 0x37B6C, symBinAddr: 0x10003AEE0, symSize: 0xB8 }
  - { offset: 0x17868, size: 0x8, addend: 0x0, symName: __ZSt28__throw_bad_array_new_lengthB8ne180100v, symObjAddr: 0x1FCCC, symBinAddr: 0x100023040, symSize: 0x34 }
  - { offset: 0x17A1A, size: 0x8, addend: 0x0, symName: __ZNK9rtw_image10pixel_dataEii, symObjAddr: 0x32A74, symBinAddr: 0x100035DE8, symSize: 0xB8 }
  - { offset: 0x17A3E, size: 0x8, addend: 0x0, symName: __ZZNK9rtw_image10pixel_dataEiiE7magenta, symObjAddr: 0x3A760, symBinAddr: 0x100044090, symSize: 0x0 }
  - { offset: 0x18A56, size: 0x8, addend: 0x0, symName: __ZNSt3__16vectorINS_10shared_ptrI8hittableEENS_9allocatorIS3_EEE26__swap_out_circular_bufferERNS_14__split_bufferIS3_RS5_EE, symObjAddr: 0x1F5F0, symBinAddr: 0x100022964, symSize: 0x110 }
  - { offset: 0x19FF1, size: 0x8, addend: 0x0, symName: __ZN8intervalC1Edd, symObjAddr: 0x0, symBinAddr: 0x100003374, symSize: 0x3C }
  - { offset: 0x1A037, size: 0x8, addend: 0x0, symName: __ZNK4vec31xEv, symObjAddr: 0x1D8, symBinAddr: 0x10000354C, symSize: 0x18 }
  - { offset: 0x1A05D, size: 0x8, addend: 0x0, symName: __ZNK4vec31yEv, symObjAddr: 0x1F0, symBinAddr: 0x100003564, symSize: 0x18 }
  - { offset: 0x1A083, size: 0x8, addend: 0x0, symName: __ZNK4vec31zEv, symObjAddr: 0x208, symBinAddr: 0x10000357C, symSize: 0x18 }
  - { offset: 0x1A0A8, size: 0x8, addend: 0x0, symName: __Z15linear_to_gammad, symObjAddr: 0x220, symBinAddr: 0x100003594, symSize: 0x44 }
  - { offset: 0x1A0D5, size: 0x8, addend: 0x0, symName: __ZNK8interval5clampEd, symObjAddr: 0x264, symBinAddr: 0x1000035D8, symSize: 0x80 }
  - { offset: 0x1A109, size: 0x8, addend: 0x0, symName: __ZN4aabbC1ERK8intervalS2_S2_, symObjAddr: 0x318, symBinAddr: 0x10000368C, symSize: 0x44 }
  - { offset: 0x1A15D, size: 0x8, addend: 0x0, symName: _stbi_failure_reason, symObjAddr: 0x35C, symBinAddr: 0x1000036D0, symSize: 0x24 }
  - { offset: 0x1A178, size: 0x8, addend: 0x0, symName: _stbi_image_free, symObjAddr: 0x380, symBinAddr: 0x1000036F4, symSize: 0x24 }
  - { offset: 0x1A19F, size: 0x8, addend: 0x0, symName: _stbi_set_flip_vertically_on_load, symObjAddr: 0x3A4, symBinAddr: 0x100003718, symSize: 0x1C }
  - { offset: 0x1A1C6, size: 0x8, addend: 0x0, symName: _stbi_set_flip_vertically_on_load_thread, symObjAddr: 0x3C0, symBinAddr: 0x100003734, symSize: 0x4C }
  - { offset: 0x1A1ED, size: 0x8, addend: 0x0, symName: _stbi_load, symObjAddr: 0x40C, symBinAddr: 0x100003780, symSize: 0xB4 }
  - { offset: 0x1A271, size: 0x8, addend: 0x0, symName: __ZL11stbi__fopenPKcS0_, symObjAddr: 0x4C0, symBinAddr: 0x100003834, symSize: 0x34 }
  - { offset: 0x1A2BD, size: 0x8, addend: 0x0, symName: __ZL9stbi__errPKc, symObjAddr: 0x4F4, symBinAddr: 0x100003868, symSize: 0x38 }
  - { offset: 0x1A2EC, size: 0x8, addend: 0x0, symName: _stbi_load_from_file, symObjAddr: 0x52C, symBinAddr: 0x1000038A0, symSize: 0xE4 }
  - { offset: 0x1A373, size: 0x8, addend: 0x0, symName: __ZL16stbi__start_fileP13stbi__contextP7__sFILE, symObjAddr: 0x610, symBinAddr: 0x100003984, symSize: 0x34 }
  - { offset: 0x1A3AC, size: 0x8, addend: 0x0, symName: __ZL31stbi__load_and_postprocess_8bitP13stbi__contextPiS1_S1_i, symObjAddr: 0x644, symBinAddr: 0x1000039B8, symSize: 0x1F4 }
  - { offset: 0x1A452, size: 0x8, addend: 0x0, symName: _stbi_load_from_file_16, symObjAddr: 0x838, symBinAddr: 0x100003BAC, symSize: 0xE4 }
  - { offset: 0x1A4D8, size: 0x8, addend: 0x0, symName: __ZL32stbi__load_and_postprocess_16bitP13stbi__contextPiS1_S1_i, symObjAddr: 0x91C, symBinAddr: 0x100003C90, symSize: 0x1F8 }
  - { offset: 0x1A57E, size: 0x8, addend: 0x0, symName: _stbi_load_16, symObjAddr: 0xB14, symBinAddr: 0x100003E88, symSize: 0xB4 }
  - { offset: 0x1A603, size: 0x8, addend: 0x0, symName: _stbi_load_16_from_memory, symObjAddr: 0xBC8, symBinAddr: 0x100003F3C, symSize: 0xA0 }
  - { offset: 0x1A68A, size: 0x8, addend: 0x0, symName: __ZL15stbi__start_memP13stbi__contextPKhi, symObjAddr: 0xC68, symBinAddr: 0x100003FDC, symSize: 0x60 }
  - { offset: 0x1A6D3, size: 0x8, addend: 0x0, symName: _stbi_load_16_from_callbacks, symObjAddr: 0xCC8, symBinAddr: 0x10000403C, symSize: 0xA0 }
  - { offset: 0x1A75A, size: 0x8, addend: 0x0, symName: __ZL21stbi__start_callbacksP13stbi__contextP17stbi_io_callbacksPv, symObjAddr: 0xD68, symBinAddr: 0x1000040DC, symSize: 0x9C }
  - { offset: 0x1A7A3, size: 0x8, addend: 0x0, symName: _stbi_load_from_memory, symObjAddr: 0xE04, symBinAddr: 0x100004178, symSize: 0xA0 }
  - { offset: 0x1A82A, size: 0x8, addend: 0x0, symName: _stbi_load_from_callbacks, symObjAddr: 0xEA4, symBinAddr: 0x100004218, symSize: 0xA0 }
  - { offset: 0x1A8B1, size: 0x8, addend: 0x0, symName: _stbi_load_gif_from_memory, symObjAddr: 0xF44, symBinAddr: 0x1000042B8, symSize: 0x134 }
  - { offset: 0x1A968, size: 0x8, addend: 0x0, symName: __ZL19stbi__load_gif_mainP13stbi__contextPPiS1_S1_S1_S1_i, symObjAddr: 0x1078, symBinAddr: 0x1000043EC, symSize: 0x500 }
  - { offset: 0x1AAB7, size: 0x8, addend: 0x0, symName: __ZL26stbi__vertical_flip_slicesPviiii, symObjAddr: 0x1578, symBinAddr: 0x1000048EC, symSize: 0xA4 }
  - { offset: 0x1AB4B, size: 0x8, addend: 0x0, symName: _stbi_loadf_from_memory, symObjAddr: 0x161C, symBinAddr: 0x100004990, symSize: 0xA0 }
  - { offset: 0x1ABD1, size: 0x8, addend: 0x0, symName: __ZL16stbi__loadf_mainP13stbi__contextPiS1_S1_i, symObjAddr: 0x16BC, symBinAddr: 0x100004A30, symSize: 0x16C }
  - { offset: 0x1AC77, size: 0x8, addend: 0x0, symName: _stbi_loadf_from_callbacks, symObjAddr: 0x1828, symBinAddr: 0x100004B9C, symSize: 0xA0 }
  - { offset: 0x1ACFE, size: 0x8, addend: 0x0, symName: _stbi_loadf, symObjAddr: 0x18C8, symBinAddr: 0x100004C3C, symSize: 0xB4 }
  - { offset: 0x1AD83, size: 0x8, addend: 0x0, symName: _stbi_loadf_from_file, symObjAddr: 0x197C, symBinAddr: 0x100004CF0, symSize: 0x98 }
  - { offset: 0x1ADF9, size: 0x8, addend: 0x0, symName: _stbi_is_hdr_from_memory, symObjAddr: 0x1A14, symBinAddr: 0x100004D88, symSize: 0x80 }
  - { offset: 0x1AE41, size: 0x8, addend: 0x0, symName: __ZL14stbi__hdr_testP13stbi__context, symObjAddr: 0x1A94, symBinAddr: 0x100004E08, symSize: 0x70 }
  - { offset: 0x1AE7F, size: 0x8, addend: 0x0, symName: _stbi_is_hdr, symObjAddr: 0x1B04, symBinAddr: 0x100004E78, symSize: 0x64 }
  - { offset: 0x1AEC8, size: 0x8, addend: 0x0, symName: _stbi_is_hdr_from_file, symObjAddr: 0x1B68, symBinAddr: 0x100004EDC, symSize: 0x9C }
  - { offset: 0x1AF20, size: 0x8, addend: 0x0, symName: _stbi_is_hdr_from_callbacks, symObjAddr: 0x1C04, symBinAddr: 0x100004F78, symSize: 0x80 }
  - { offset: 0x1AF69, size: 0x8, addend: 0x0, symName: _stbi_ldr_to_hdr_gamma, symObjAddr: 0x1C84, symBinAddr: 0x100004FF8, symSize: 0x1C }
  - { offset: 0x1AF90, size: 0x8, addend: 0x0, symName: _stbi_ldr_to_hdr_scale, symObjAddr: 0x1CA0, symBinAddr: 0x100005014, symSize: 0x1C }
  - { offset: 0x1AFB7, size: 0x8, addend: 0x0, symName: _stbi_hdr_to_ldr_gamma, symObjAddr: 0x1CBC, symBinAddr: 0x100005030, symSize: 0x24 }
  - { offset: 0x1AFDE, size: 0x8, addend: 0x0, symName: _stbi_hdr_to_ldr_scale, symObjAddr: 0x1CE0, symBinAddr: 0x100005054, symSize: 0x24 }
  - { offset: 0x1B005, size: 0x8, addend: 0x0, symName: _stbi_zlib_decode_malloc_guesssize, symObjAddr: 0x1D04, symBinAddr: 0x100005078, symSize: 0x138 }
  - { offset: 0x1B07A, size: 0x8, addend: 0x0, symName: __ZL12stbi__mallocm, symObjAddr: 0x1E3C, symBinAddr: 0x1000051B0, symSize: 0x24 }
  - { offset: 0x1B0A8, size: 0x8, addend: 0x0, symName: __ZL13stbi__do_zlibP10stbi__zbufPciii, symObjAddr: 0x1E60, symBinAddr: 0x1000051D4, symSize: 0x70 }
  - { offset: 0x1B113, size: 0x8, addend: 0x0, symName: _stbi_zlib_decode_malloc, symObjAddr: 0x1ED0, symBinAddr: 0x100005244, symSize: 0x38 }
  - { offset: 0x1B15C, size: 0x8, addend: 0x0, symName: _stbi_zlib_decode_malloc_guesssize_headerflag, symObjAddr: 0x1F08, symBinAddr: 0x10000527C, symSize: 0x13C }
  - { offset: 0x1B1E2, size: 0x8, addend: 0x0, symName: _stbi_zlib_decode_buffer, symObjAddr: 0x2044, symBinAddr: 0x1000053B8, symSize: 0xE8 }
  - { offset: 0x1B249, size: 0x8, addend: 0x0, symName: _stbi_zlib_decode_noheader_malloc, symObjAddr: 0x212C, symBinAddr: 0x1000054A0, symSize: 0x134 }
  - { offset: 0x1B2B0, size: 0x8, addend: 0x0, symName: _stbi_zlib_decode_noheader_buffer, symObjAddr: 0x2260, symBinAddr: 0x1000055D4, symSize: 0xE8 }
  - { offset: 0x1B317, size: 0x8, addend: 0x0, symName: _stbi_set_unpremultiply_on_load, symObjAddr: 0x2348, symBinAddr: 0x1000056BC, symSize: 0x1C }
  - { offset: 0x1B33E, size: 0x8, addend: 0x0, symName: _stbi_convert_iphone_png_to_rgb, symObjAddr: 0x2364, symBinAddr: 0x1000056D8, symSize: 0x1C }
  - { offset: 0x1B365, size: 0x8, addend: 0x0, symName: _stbi_set_unpremultiply_on_load_thread, symObjAddr: 0x2380, symBinAddr: 0x1000056F4, symSize: 0x4C }
  - { offset: 0x1B38C, size: 0x8, addend: 0x0, symName: _stbi_convert_iphone_png_to_rgb_thread, symObjAddr: 0x23CC, symBinAddr: 0x100005740, symSize: 0x4C }
  - { offset: 0x1B3B3, size: 0x8, addend: 0x0, symName: _stbi_info, symObjAddr: 0x2418, symBinAddr: 0x10000578C, symSize: 0x94 }
  - { offset: 0x1B429, size: 0x8, addend: 0x0, symName: _stbi_info_from_file, symObjAddr: 0x24AC, symBinAddr: 0x100005820, symSize: 0xB4 }
  - { offset: 0x1B4AF, size: 0x8, addend: 0x0, symName: __ZL15stbi__info_mainP13stbi__contextPiS1_S1_, symObjAddr: 0x2560, symBinAddr: 0x1000058D4, symSize: 0x1F0 }
  - { offset: 0x1B50B, size: 0x8, addend: 0x0, symName: _stbi_is_16_bit, symObjAddr: 0x2750, symBinAddr: 0x100005AC4, symSize: 0x7C }
  - { offset: 0x1B554, size: 0x8, addend: 0x0, symName: _stbi_is_16_bit_from_file, symObjAddr: 0x27CC, symBinAddr: 0x100005B40, symSize: 0x9C }
  - { offset: 0x1B5AB, size: 0x8, addend: 0x0, symName: __ZL16stbi__is_16_mainP13stbi__context, symObjAddr: 0x2868, symBinAddr: 0x100005BDC, symSize: 0x94 }
  - { offset: 0x1B5DA, size: 0x8, addend: 0x0, symName: _stbi_info_from_memory, symObjAddr: 0x28FC, symBinAddr: 0x100005C70, symSize: 0x98 }
  - { offset: 0x1B650, size: 0x8, addend: 0x0, symName: _stbi_info_from_callbacks, symObjAddr: 0x2994, symBinAddr: 0x100005D08, symSize: 0x98 }
  - { offset: 0x1B6C6, size: 0x8, addend: 0x0, symName: _stbi_is_16_bit_from_memory, symObjAddr: 0x2A2C, symBinAddr: 0x100005DA0, symSize: 0x80 }
  - { offset: 0x1B70F, size: 0x8, addend: 0x0, symName: _stbi_is_16_bit_from_callbacks, symObjAddr: 0x2AAC, symBinAddr: 0x100005E20, symSize: 0x80 }
  - { offset: 0x1B757, size: 0x8, addend: 0x0, symName: __Z16bouncing_spheresv, symObjAddr: 0x2B2C, symBinAddr: 0x100005EA0, symSize: 0xAE0 }
  - { offset: 0x1B87F, size: 0x8, addend: 0x0, symName: __ZN13hittable_listC1Ev, symObjAddr: 0x360C, symBinAddr: 0x100006980, symSize: 0x2C }
  - { offset: 0x1B8A9, size: 0x8, addend: 0x0, symName: __ZN4vec3C1Eddd, symObjAddr: 0x3688, symBinAddr: 0x1000069FC, symSize: 0x44 }
  - { offset: 0x1B8FD, size: 0x8, addend: 0x0, symName: __ZN13hittable_list3addENSt3__110shared_ptrI8hittableEE, symObjAddr: 0x36CC, symBinAddr: 0x100006A40, symSize: 0x80 }
  - { offset: 0x1B956, size: 0x8, addend: 0x0, symName: __ZNSt3__110shared_ptrI8hittableEC1B8ne180100I6spherevEEONS0_IT_EE, symObjAddr: 0x37DC, symBinAddr: 0x100006B50, symSize: 0x34 }
  - { offset: 0x1B999, size: 0x8, addend: 0x0, symName: __ZNSt3__110shared_ptrI8hittableED1B8ne180100Ev, symObjAddr: 0x3810, symBinAddr: 0x100006B84, symSize: 0x2C }
  - { offset: 0x1B9C3, size: 0x8, addend: 0x0, symName: __ZNSt3__110shared_ptrI6sphereED1B8ne180100Ev, symObjAddr: 0x383C, symBinAddr: 0x100006BB0, symSize: 0x2C }
  - { offset: 0x1BA11, size: 0x8, addend: 0x0, symName: __ZNSt3__110shared_ptrI10lambertianED1B8ne180100Ev, symObjAddr: 0x3868, symBinAddr: 0x100006BDC, symSize: 0x2C }
  - { offset: 0x1BA3B, size: 0x8, addend: 0x0, symName: __Z13random_doublev, symObjAddr: 0x3894, symBinAddr: 0x100006C08, symSize: 0x24 }
  - { offset: 0x1BA58, size: 0x8, addend: 0x0, symName: __ZmiRK4vec3S1_, symObjAddr: 0x38B8, symBinAddr: 0x100006C2C, symSize: 0x70 }
  - { offset: 0x1BA93, size: 0x8, addend: 0x0, symName: __ZNK4vec36lengthEv, symObjAddr: 0x3928, symBinAddr: 0x100006C9C, symSize: 0x28 }
  - { offset: 0x1BAB9, size: 0x8, addend: 0x0, symName: __ZNSt3__110shared_ptrI8materialEC1B8ne180100Ev, symObjAddr: 0x3950, symBinAddr: 0x100006CC4, symSize: 0x2C }
  - { offset: 0x1BAE2, size: 0x8, addend: 0x0, symName: __ZmlRK4vec3S1_, symObjAddr: 0x397C, symBinAddr: 0x100006CF0, symSize: 0x70 }
  - { offset: 0x1BB1D, size: 0x8, addend: 0x0, symName: __ZN4vec36randomEv, symObjAddr: 0x39EC, symBinAddr: 0x100006D60, symSize: 0x4C }
  - { offset: 0x1BB31, size: 0x8, addend: 0x0, symName: __ZNSt3__110shared_ptrI8materialEaSB8ne180100I10lambertianvEERS2_ONS0_IT_EE, symObjAddr: 0x3A78, symBinAddr: 0x100006DEC, symSize: 0x50 }
  - { offset: 0x1BB6F, size: 0x8, addend: 0x0, symName: __ZplRK4vec3S1_, symObjAddr: 0x3AC8, symBinAddr: 0x100006E3C, symSize: 0x70 }
  - { offset: 0x1BBA9, size: 0x8, addend: 0x0, symName: __Z13random_doubledd, symObjAddr: 0x3B38, symBinAddr: 0x100006EAC, symSize: 0x4C }
  - { offset: 0x1BBE4, size: 0x8, addend: 0x0, symName: __ZN4vec36randomEdd, symObjAddr: 0x3BDC, symBinAddr: 0x100006F50, symSize: 0x6C }
  - { offset: 0x1BC39, size: 0x8, addend: 0x0, symName: __ZNSt3__110shared_ptrI8materialEaSB8ne180100I5metalvEERS2_ONS0_IT_EE, symObjAddr: 0x3C90, symBinAddr: 0x100007004, symSize: 0x50 }
  - { offset: 0x1BC78, size: 0x8, addend: 0x0, symName: __ZNSt3__110shared_ptrI5metalED1B8ne180100Ev, symObjAddr: 0x3CE0, symBinAddr: 0x100007054, symSize: 0x2C }
  - { offset: 0x1BCC6, size: 0x8, addend: 0x0, symName: __ZNSt3__110shared_ptrI8materialEaSB8ne180100I10dielectricvEERS2_ONS0_IT_EE, symObjAddr: 0x3D9C, symBinAddr: 0x100007110, symSize: 0x50 }
  - { offset: 0x1BD05, size: 0x8, addend: 0x0, symName: __ZNSt3__110shared_ptrI10dielectricED1B8ne180100Ev, symObjAddr: 0x3DEC, symBinAddr: 0x100007160, symSize: 0x2C }
  - { offset: 0x1BD2F, size: 0x8, addend: 0x0, symName: __ZNSt3__110shared_ptrI8materialED1B8ne180100Ev, symObjAddr: 0x3E18, symBinAddr: 0x10000718C, symSize: 0x2C }
  - { offset: 0x1BD7D, size: 0x8, addend: 0x0, symName: __ZNSt3__110shared_ptrI8hittableEC1B8ne180100I8bvh_nodevEEONS0_IT_EE, symObjAddr: 0x3FFC, symBinAddr: 0x100007370, symSize: 0x34 }
  - { offset: 0x1BDC0, size: 0x8, addend: 0x0, symName: __ZN13hittable_listC1ENSt3__110shared_ptrI8hittableEE, symObjAddr: 0x4030, symBinAddr: 0x1000073A4, symSize: 0x34 }
  - { offset: 0x1BE04, size: 0x8, addend: 0x0, symName: __ZN13hittable_listaSEOS_, symObjAddr: 0x4064, symBinAddr: 0x1000073D8, symSize: 0x60 }
  - { offset: 0x1BE35, size: 0x8, addend: 0x0, symName: __ZN13hittable_listD1Ev, symObjAddr: 0x40C4, symBinAddr: 0x100007438, symSize: 0x2C }
  - { offset: 0x1BE61, size: 0x8, addend: 0x0, symName: __ZNSt3__110shared_ptrI8bvh_nodeED1B8ne180100Ev, symObjAddr: 0x40F0, symBinAddr: 0x100007464, symSize: 0x2C }
  - { offset: 0x1C05A, size: 0x8, addend: 0x0, symName: __ZN6cameraC1Ev, symObjAddr: 0x411C, symBinAddr: 0x100007490, symSize: 0x2C }
  - { offset: 0x1C086, size: 0x8, addend: 0x0, symName: __ZN6camera6renderERK8hittable, symObjAddr: 0x4148, symBinAddr: 0x1000074BC, symSize: 0x1E8 }
  - { offset: 0x1C16B, size: 0x8, addend: 0x0, symName: __ZNSt3__110shared_ptrI15checker_textureED1B8ne180100Ev, symObjAddr: 0x4330, symBinAddr: 0x1000076A4, symSize: 0x2C }
  - { offset: 0x1C194, size: 0x8, addend: 0x0, symName: __Z17checkered_spheresv, symObjAddr: 0x435C, symBinAddr: 0x1000076D0, symSize: 0x320 }
  - { offset: 0x1C1DB, size: 0x8, addend: 0x0, symName: __Z5earthv, symObjAddr: 0x467C, symBinAddr: 0x1000079F0, symSize: 0x230 }
  - { offset: 0x1C230, size: 0x8, addend: 0x0, symName: __ZNSt3__110shared_ptrI8hittableEC1B8ne180100I6spherevEERKNS0_IT_EE, symObjAddr: 0x497C, symBinAddr: 0x100007CF0, symSize: 0x34 }
  - { offset: 0x1C297, size: 0x8, addend: 0x0, symName: __ZNSt3__110shared_ptrI13image_textureED1B8ne180100Ev, symObjAddr: 0x49B0, symBinAddr: 0x100007D24, symSize: 0x2C }
  - { offset: 0x1C2C0, size: 0x8, addend: 0x0, symName: __Z14perlin_spheresv, symObjAddr: 0x49DC, symBinAddr: 0x100007D50, symSize: 0x2D8 }
  - { offset: 0x1C32C, size: 0x8, addend: 0x0, symName: __ZNSt3__110shared_ptrI13noise_textureED1B8ne180100Ev, symObjAddr: 0x4D34, symBinAddr: 0x1000080A8, symSize: 0x2C }
  - { offset: 0x1C355, size: 0x8, addend: 0x0, symName: __Z5quadsv, symObjAddr: 0x4D60, symBinAddr: 0x1000080D4, symSize: 0x634 }
  - { offset: 0x1C3FD, size: 0x8, addend: 0x0, symName: __ZNSt3__110shared_ptrI8hittableEC1B8ne180100I4quadvEEONS0_IT_EE, symObjAddr: 0x53EC, symBinAddr: 0x100008760, symSize: 0x34 }
  - { offset: 0x1C440, size: 0x8, addend: 0x0, symName: __ZNSt3__110shared_ptrI4quadED1B8ne180100Ev, symObjAddr: 0x5420, symBinAddr: 0x100008794, symSize: 0x2C }
  - { offset: 0x1C469, size: 0x8, addend: 0x0, symName: __Z4trisv, symObjAddr: 0x544C, symBinAddr: 0x1000087C0, symSize: 0x634 }
  - { offset: 0x1C511, size: 0x8, addend: 0x0, symName: __ZNSt3__110shared_ptrI8hittableEC1B8ne180100I3trivEEONS0_IT_EE, symObjAddr: 0x5AD8, symBinAddr: 0x100008E4C, symSize: 0x34 }
  - { offset: 0x1C554, size: 0x8, addend: 0x0, symName: __ZNSt3__110shared_ptrI3triED1B8ne180100Ev, symObjAddr: 0x5B0C, symBinAddr: 0x100008E80, symSize: 0x2C }
  - { offset: 0x1C57D, size: 0x8, addend: 0x0, symName: __Z8ellipsesv, symObjAddr: 0x5B38, symBinAddr: 0x100008EAC, symSize: 0x6E8 }
  - { offset: 0x1C625, size: 0x8, addend: 0x0, symName: __ZNSt3__110shared_ptrI8hittableEC1B8ne180100I7ellipsevEEONS0_IT_EE, symObjAddr: 0x6278, symBinAddr: 0x1000095EC, symSize: 0x34 }
  - { offset: 0x1C668, size: 0x8, addend: 0x0, symName: __ZNSt3__110shared_ptrI7ellipseED1B8ne180100Ev, symObjAddr: 0x62AC, symBinAddr: 0x100009620, symSize: 0x2C }
  - { offset: 0x1C691, size: 0x8, addend: 0x0, symName: __Z6annuliv, symObjAddr: 0x62D8, symBinAddr: 0x10000964C, symSize: 0x734 }
  - { offset: 0x1C741, size: 0x8, addend: 0x0, symName: __ZNSt3__110shared_ptrI8hittableEC1B8ne180100I7annulusvEEONS0_IT_EE, symObjAddr: 0x6A6C, symBinAddr: 0x100009DE0, symSize: 0x34 }
  - { offset: 0x1C784, size: 0x8, addend: 0x0, symName: __ZNSt3__110shared_ptrI7annulusED1B8ne180100Ev, symObjAddr: 0x6AA0, symBinAddr: 0x100009E14, symSize: 0x2C }
  - { offset: 0x1C7AE, size: 0x8, addend: 0x0, symName: _main, symObjAddr: 0x6ACC, symBinAddr: 0x100009E40, symSize: 0x18 }
  - { offset: 0x1C7C9, size: 0x8, addend: 0x0, symName: __ZN8intervalC2Edd, symObjAddr: 0x6AE4, symBinAddr: 0x100009E58, symSize: 0x2C }
  - { offset: 0x1C80F, size: 0x8, addend: 0x0, symName: __ZN4aabbC2ERK8intervalS2_S2_, symObjAddr: 0x6B10, symBinAddr: 0x100009E84, symSize: 0x5C }
  - { offset: 0x1C863, size: 0x8, addend: 0x0, symName: __ZN4aabb15pad_to_minimumsEv, symObjAddr: 0x6B6C, symBinAddr: 0x100009EE0, symSize: 0xFC }
  - { offset: 0x1C897, size: 0x8, addend: 0x0, symName: __ZNK8interval4sizeEv, symObjAddr: 0x6C68, symBinAddr: 0x100009FDC, symSize: 0x20 }
  - { offset: 0x1C8BD, size: 0x8, addend: 0x0, symName: __ZNK8interval6expandEd, symObjAddr: 0x6C88, symBinAddr: 0x100009FFC, symSize: 0x5C }
  - { offset: 0x1C8FE, size: 0x8, addend: 0x0, symName: __ZL16stbi__stdio_readPvPci, symObjAddr: 0x6CE4, symBinAddr: 0x10000A058, symSize: 0x38 }
  - { offset: 0x1C94B, size: 0x8, addend: 0x0, symName: __ZL16stbi__stdio_skipPvi, symObjAddr: 0x6D1C, symBinAddr: 0x10000A090, symSize: 0x60 }
  - { offset: 0x1C993, size: 0x8, addend: 0x0, symName: __ZL15stbi__stdio_eofPv, symObjAddr: 0x6D7C, symBinAddr: 0x10000A0F0, symSize: 0x5C }
  - { offset: 0x1C9C1, size: 0x8, addend: 0x0, symName: __ZL15stbi__load_mainP13stbi__contextPiS1_S1_iP17stbi__result_infoi, symObjAddr: 0x6DD8, symBinAddr: 0x10000A14C, symSize: 0x314 }
  - { offset: 0x1CA66, size: 0x8, addend: 0x0, symName: __ZL21stbi__convert_16_to_8Ptiii, symObjAddr: 0x70EC, symBinAddr: 0x10000A460, symSize: 0xF8 }
  - { offset: 0x1CAEF, size: 0x8, addend: 0x0, symName: __ZL19stbi__vertical_flipPviii, symObjAddr: 0x71E4, symBinAddr: 0x10000A558, symSize: 0x1B0 }
  - { offset: 0x1CBE0, size: 0x8, addend: 0x0, symName: __ZL14stbi__png_testP13stbi__context, symObjAddr: 0x7394, symBinAddr: 0x10000A708, symSize: 0x34 }
  - { offset: 0x1CC1D, size: 0x8, addend: 0x0, symName: __ZL14stbi__png_loadP13stbi__contextPiS1_S1_iP17stbi__result_info, symObjAddr: 0x73C8, symBinAddr: 0x10000A73C, symSize: 0x54 }
  - { offset: 0x1CCA5, size: 0x8, addend: 0x0, symName: __ZL14stbi__bmp_testP13stbi__context, symObjAddr: 0x741C, symBinAddr: 0x10000A790, symSize: 0x34 }
  - { offset: 0x1CCE2, size: 0x8, addend: 0x0, symName: __ZL14stbi__bmp_loadP13stbi__contextPiS1_S1_iP17stbi__result_info, symObjAddr: 0x7450, symBinAddr: 0x10000A7C4, symSize: 0x13D4 }
  - { offset: 0x1D07E, size: 0x8, addend: 0x0, symName: __ZL14stbi__gif_testP13stbi__context, symObjAddr: 0x8824, symBinAddr: 0x10000BB98, symSize: 0x34 }
  - { offset: 0x1D0BB, size: 0x8, addend: 0x0, symName: __ZL14stbi__gif_loadP13stbi__contextPiS1_S1_iP17stbi__result_info, symObjAddr: 0x8858, symBinAddr: 0x10000BBCC, symSize: 0x184 }
  - { offset: 0x1D153, size: 0x8, addend: 0x0, symName: __ZL14stbi__psd_testP13stbi__context, symObjAddr: 0x89DC, symBinAddr: 0x10000BD50, symSize: 0x48 }
  - { offset: 0x1D190, size: 0x8, addend: 0x0, symName: __ZL14stbi__psd_loadP13stbi__contextPiS1_S1_iP17stbi__result_infoi, symObjAddr: 0x8A24, symBinAddr: 0x10000BD98, symSize: 0xC90 }
  - { offset: 0x1D413, size: 0x8, addend: 0x0, symName: __ZL14stbi__pic_testP13stbi__context, symObjAddr: 0x96B4, symBinAddr: 0x10000CA28, symSize: 0x34 }
  - { offset: 0x1D450, size: 0x8, addend: 0x0, symName: __ZL14stbi__pic_loadP13stbi__contextPiS1_S1_iP17stbi__result_info, symObjAddr: 0x96E8, symBinAddr: 0x10000CA5C, symSize: 0x2F0 }
  - { offset: 0x1D514, size: 0x8, addend: 0x0, symName: __ZL15stbi__jpeg_testP13stbi__context, symObjAddr: 0x99D8, symBinAddr: 0x10000CD4C, symSize: 0xA0 }
  - { offset: 0x1D560, size: 0x8, addend: 0x0, symName: __ZL15stbi__jpeg_loadP13stbi__contextPiS1_S1_iP17stbi__result_info, symObjAddr: 0x9A78, symBinAddr: 0x10000CDEC, symSize: 0xD0 }
  - { offset: 0x1D5F7, size: 0x8, addend: 0x0, symName: __ZL14stbi__pnm_testP13stbi__context, symObjAddr: 0x9B48, symBinAddr: 0x10000CEBC, symSize: 0x90 }
  - { offset: 0x1D643, size: 0x8, addend: 0x0, symName: __ZL14stbi__pnm_loadP13stbi__contextPiS1_S1_iP17stbi__result_info, symObjAddr: 0x9BD8, symBinAddr: 0x10000CF4C, symSize: 0x384 }
  - { offset: 0x1D6CB, size: 0x8, addend: 0x0, symName: __ZL14stbi__hdr_loadP13stbi__contextPiS1_S1_iP17stbi__result_info, symObjAddr: 0x9F5C, symBinAddr: 0x10000D2D0, symSize: 0xA40 }
  - { offset: 0x1D8BF, size: 0x8, addend: 0x0, symName: __ZL16stbi__hdr_to_ldrPfiii, symObjAddr: 0xA99C, symBinAddr: 0x10000DD10, symSize: 0x2D0 }
  - { offset: 0x1D990, size: 0x8, addend: 0x0, symName: __ZL14stbi__tga_testP13stbi__context, symObjAddr: 0xAC6C, symBinAddr: 0x10000DFE0, symSize: 0x2A0 }
  - { offset: 0x1D9FC, size: 0x8, addend: 0x0, symName: __ZL14stbi__tga_loadP13stbi__contextPiS1_S1_iP17stbi__result_info, symObjAddr: 0xAF0C, symBinAddr: 0x10000E280, symSize: 0xC2C }
  - { offset: 0x1DCEF, size: 0x8, addend: 0x0, symName: __ZL12stbi__rewindP13stbi__context, symObjAddr: 0xBBD0, symBinAddr: 0x10000EF44, symSize: 0x30 }
  - { offset: 0x1DD19, size: 0x8, addend: 0x0, symName: __ZL10stbi__get8P13stbi__context, symObjAddr: 0xBC00, symBinAddr: 0x10000EF74, symSize: 0xA0 }
  - { offset: 0x1DD48, size: 0x8, addend: 0x0, symName: __ZL19stbi__refill_bufferP13stbi__context, symObjAddr: 0xBCA0, symBinAddr: 0x10000F014, symSize: 0xE4 }
  - { offset: 0x1DD81, size: 0x8, addend: 0x0, symName: __ZL12stbi__do_pngP9stbi__pngPiS1_S1_iP17stbi__result_info, symObjAddr: 0xBD84, symBinAddr: 0x10000F0F8, symSize: 0x2D0 }
  - { offset: 0x1DE09, size: 0x8, addend: 0x0, symName: __ZL20stbi__convert_formatPhiijj, symObjAddr: 0xCF58, symBinAddr: 0x1000102CC, symSize: 0x7D4 }
  - { offset: 0x1DECC, size: 0x8, addend: 0x0, symName: __ZL22stbi__convert_format16Ptiijj, symObjAddr: 0xD794, symBinAddr: 0x100010B08, symSize: 0x7DC }
  - { offset: 0x1DF8F, size: 0x8, addend: 0x0, symName: __ZL22stbi__get_chunk_headerP13stbi__context, symObjAddr: 0xDFD8, symBinAddr: 0x10001134C, symSize: 0x38 }
  - { offset: 0x1DFCD, size: 0x8, addend: 0x0, symName: __ZL10stbi__skipP13stbi__contexti, symObjAddr: 0xE010, symBinAddr: 0x100011384, symSize: 0xF8 }
  - { offset: 0x1E023, size: 0x8, addend: 0x0, symName: __ZL13stbi__get32beP13stbi__context, symObjAddr: 0xE108, symBinAddr: 0x10001147C, symSize: 0x40 }
  - { offset: 0x1E060, size: 0x8, addend: 0x0, symName: __ZL13stbi__get16beP13stbi__context, symObjAddr: 0xE148, symBinAddr: 0x1000114BC, symSize: 0x48 }
  - { offset: 0x1E09D, size: 0x8, addend: 0x0, symName: __ZL10stbi__getnP13stbi__contextPhi, symObjAddr: 0xE190, symBinAddr: 0x100011504, symSize: 0x158 }
  - { offset: 0x1E132, size: 0x8, addend: 0x0, symName: __ZL22stbi__create_png_imageP9stbi__pngPhjiiii, symObjAddr: 0xE2E8, symBinAddr: 0x10001165C, symSize: 0x468 }
  - { offset: 0x1E2D0, size: 0x8, addend: 0x0, symName: __ZL28stbi__compute_transparency16P9stbi__pngPti, symObjAddr: 0xE750, symBinAddr: 0x100011AC4, symSize: 0x1F4 }
  - { offset: 0x1E358, size: 0x8, addend: 0x0, symName: __ZL26stbi__compute_transparencyP9stbi__pngPhi, symObjAddr: 0xE944, symBinAddr: 0x100011CB8, symSize: 0x1F4 }
  - { offset: 0x1E3E1, size: 0x8, addend: 0x0, symName: __ZL15stbi__de_iphoneP9stbi__png, symObjAddr: 0xEB38, symBinAddr: 0x100011EAC, symSize: 0x2B0 }
  - { offset: 0x1E4CA, size: 0x8, addend: 0x0, symName: __ZL24stbi__expand_png_paletteP9stbi__pngPhii, symObjAddr: 0xEDE8, symBinAddr: 0x10001215C, symSize: 0x240 }
  - { offset: 0x1E5AA, size: 0x8, addend: 0x0, symName: __ZL26stbi__create_png_image_rawP9stbi__pngPhjijjii, symObjAddr: 0xF028, symBinAddr: 0x10001239C, symSize: 0xD64 }
  - { offset: 0x1E803, size: 0x8, addend: 0x0, symName: __ZL17stbi__malloc_mad3iiii, symObjAddr: 0xFDA4, symBinAddr: 0x100013118, symSize: 0x88 }
  - { offset: 0x1E85E, size: 0x8, addend: 0x0, symName: __ZL21stbi__mad3sizes_validiiii, symObjAddr: 0xFE2C, symBinAddr: 0x1000131A0, symSize: 0xAC }
  - { offset: 0x1E8B9, size: 0x8, addend: 0x0, symName: __ZL21stbi__mad2sizes_validiii, symObjAddr: 0xFED8, symBinAddr: 0x10001324C, symSize: 0x74 }
  - { offset: 0x1E905, size: 0x8, addend: 0x0, symName: __ZL17stbi__malloc_mad2iii, symObjAddr: 0xFF4C, symBinAddr: 0x1000132C0, symSize: 0x78 }
  - { offset: 0x1E952, size: 0x8, addend: 0x0, symName: __ZL11stbi__paethiii, symObjAddr: 0xFFC4, symBinAddr: 0x100013338, symSize: 0x11C }
  - { offset: 0x1E9EA, size: 0x8, addend: 0x0, symName: __ZL30stbi__create_png_alpha_expand8PhS_ji, symObjAddr: 0x100E0, symBinAddr: 0x100013454, symSize: 0x1E0 }
  - { offset: 0x1EA51, size: 0x8, addend: 0x0, symName: __ZL21stbi__mul2sizes_validii, symObjAddr: 0x102C0, symBinAddr: 0x100013634, symSize: 0x8C }
  - { offset: 0x1EA8F, size: 0x8, addend: 0x0, symName: __ZL20stbi__addsizes_validii, symObjAddr: 0x1034C, symBinAddr: 0x1000136C0, symSize: 0x58 }
  - { offset: 0x1EACD, size: 0x8, addend: 0x0, symName: __ZL15stbi__compute_yiii, symObjAddr: 0x103A4, symBinAddr: 0x100013718, symSize: 0x4C }
  - { offset: 0x1EB1A, size: 0x8, addend: 0x0, symName: __ZL18stbi__compute_y_16iii, symObjAddr: 0x103F0, symBinAddr: 0x100013764, symSize: 0x4C }
  - { offset: 0x1EB66, size: 0x8, addend: 0x0, symName: __ZL18stbi__bmp_test_rawP13stbi__context, symObjAddr: 0x1043C, symBinAddr: 0x1000137B0, symSize: 0x130 }
  - { offset: 0x1EBB2, size: 0x8, addend: 0x0, symName: __ZL13stbi__get32leP13stbi__context, symObjAddr: 0x1056C, symBinAddr: 0x1000138E0, symSize: 0x40 }
  - { offset: 0x1EBEF, size: 0x8, addend: 0x0, symName: __ZL13stbi__get16leP13stbi__context, symObjAddr: 0x105AC, symBinAddr: 0x100013920, symSize: 0x48 }
  - { offset: 0x1EC2C, size: 0x8, addend: 0x0, symName: __ZL22stbi__bmp_parse_headerP13stbi__contextP14stbi__bmp_data, symObjAddr: 0x105F4, symBinAddr: 0x100013968, symSize: 0x6B4 }
  - { offset: 0x1ECB3, size: 0x8, addend: 0x0, symName: __ZL14stbi__high_bitj, symObjAddr: 0x10CA8, symBinAddr: 0x10001401C, symSize: 0x128 }
  - { offset: 0x1ECF1, size: 0x8, addend: 0x0, symName: __ZL14stbi__bitcountj, symObjAddr: 0x10DD0, symBinAddr: 0x100014144, symSize: 0x80 }
  - { offset: 0x1ED20, size: 0x8, addend: 0x0, symName: __ZL27stbi__bmp_set_mask_defaultsP14stbi__bmp_datai, symObjAddr: 0x10F94, symBinAddr: 0x100014308, symSize: 0x11C }
  - { offset: 0x1ED5D, size: 0x8, addend: 0x0, symName: __ZL18stbi__gif_test_rawP13stbi__context, symObjAddr: 0x110B0, symBinAddr: 0x100014424, symSize: 0x108 }
  - { offset: 0x1ED9A, size: 0x8, addend: 0x0, symName: __ZL19stbi__gif_load_nextP13stbi__contextP9stbi__gifPiiPh, symObjAddr: 0x111B8, symBinAddr: 0x10001452C, symSize: 0xA60 }
  - { offset: 0x1EEE6, size: 0x8, addend: 0x0, symName: __ZL16stbi__gif_headerP13stbi__contextP9stbi__gifPii, symObjAddr: 0x11C18, symBinAddr: 0x100014F8C, symSize: 0x24C }
  - { offset: 0x1EF51, size: 0x8, addend: 0x0, symName: __ZL26stbi__gif_parse_colortableP13stbi__contextPA4_hii, symObjAddr: 0x11E64, symBinAddr: 0x1000151D8, symSize: 0xD8 }
  - { offset: 0x1EFB7, size: 0x8, addend: 0x0, symName: __ZL24stbi__process_gif_rasterP13stbi__contextP9stbi__gif, symObjAddr: 0x11F3C, symBinAddr: 0x1000152B0, symSize: 0x4E4 }
  - { offset: 0x1F0C6, size: 0x8, addend: 0x0, symName: __ZL18stbi__out_gif_codeP9stbi__gift, symObjAddr: 0x12420, symBinAddr: 0x100015794, symSize: 0x2B0 }
  - { offset: 0x1F12C, size: 0x8, addend: 0x0, symName: __ZL20stbi__psd_decode_rleP13stbi__contextPhi, symObjAddr: 0x126D0, symBinAddr: 0x100015A44, symSize: 0x1CC }
  - { offset: 0x1F1C2, size: 0x8, addend: 0x0, symName: __ZL19stbi__pic_test_coreP13stbi__context, symObjAddr: 0x1289C, symBinAddr: 0x100015C10, symSize: 0xB4 }
  - { offset: 0x1F1FF, size: 0x8, addend: 0x0, symName: __ZL13stbi__pic_is4P13stbi__contextPKc, symObjAddr: 0x12950, symBinAddr: 0x100015CC4, symSize: 0x8C }
  - { offset: 0x1F24B, size: 0x8, addend: 0x0, symName: __ZL12stbi__at_eofP13stbi__context, symObjAddr: 0x129DC, symBinAddr: 0x100015D50, symSize: 0xB0 }
  - { offset: 0x1F279, size: 0x8, addend: 0x0, symName: __ZL19stbi__pic_load_coreP13stbi__contextiiPiPh, symObjAddr: 0x12A8C, symBinAddr: 0x100015E00, symSize: 0x708 }
  - { offset: 0x1F46F, size: 0x8, addend: 0x0, symName: __ZL13stbi__readvalP13stbi__contextiPh, symObjAddr: 0x13194, symBinAddr: 0x100016508, symSize: 0xEC }
  - { offset: 0x1F4DA, size: 0x8, addend: 0x0, symName: __ZL13stbi__copyvaliPhPKh, symObjAddr: 0x13280, symBinAddr: 0x1000165F4, symSize: 0x98 }
  - { offset: 0x1F541, size: 0x8, addend: 0x0, symName: __ZL16stbi__setup_jpegP10stbi__jpeg, symObjAddr: 0x13318, symBinAddr: 0x10001668C, symSize: 0x40 }
  - { offset: 0x1F56B, size: 0x8, addend: 0x0, symName: __ZL24stbi__decode_jpeg_headerP10stbi__jpegi, symObjAddr: 0x13358, symBinAddr: 0x1000166CC, symSize: 0x1FC }
  - { offset: 0x1F5B8, size: 0x8, addend: 0x0, symName: __ZL16stbi__idct_blockPhiPs, symObjAddr: 0x13554, symBinAddr: 0x1000168C8, symSize: 0x8DC }
  - { offset: 0x1F823, size: 0x8, addend: 0x0, symName: __ZL22stbi__YCbCr_to_RGB_rowPhPKhS1_S1_ii, symObjAddr: 0x13E30, symBinAddr: 0x1000171A4, symSize: 0x228 }
  - { offset: 0x1F912, size: 0x8, addend: 0x0, symName: __ZL23stbi__resample_row_hv_2PhS_S_ii, symObjAddr: 0x14058, symBinAddr: 0x1000173CC, symSize: 0x194 }
  - { offset: 0x1F9AA, size: 0x8, addend: 0x0, symName: __ZL11stbi__clampi, symObjAddr: 0x141EC, symBinAddr: 0x100017560, symSize: 0x74 }
  - { offset: 0x1F9D8, size: 0x8, addend: 0x0, symName: __ZL16stbi__get_markerP10stbi__jpeg, symObjAddr: 0x14260, symBinAddr: 0x1000175D4, symSize: 0xD4 }
  - { offset: 0x1FA15, size: 0x8, addend: 0x0, symName: __ZL19stbi__build_huffmanP13stbi__huffmanPi, symObjAddr: 0x157BC, symBinAddr: 0x100018B30, symSize: 0x340 }
  - { offset: 0x1FAD8, size: 0x8, addend: 0x0, symName: __ZL19stbi__build_fast_acPsP13stbi__huffman, symObjAddr: 0x15AFC, symBinAddr: 0x100018E70, symSize: 0x1C0 }
  - { offset: 0x1FBB3, size: 0x8, addend: 0x0, symName: __ZL26stbi__free_jpeg_componentsP10stbi__jpegii, symObjAddr: 0x15CBC, symBinAddr: 0x100019030, symSize: 0x20C }
  - { offset: 0x1FC0E, size: 0x8, addend: 0x0, symName: __ZL15load_jpeg_imageP10stbi__jpegPiS1_S1_i, symObjAddr: 0x15EC8, symBinAddr: 0x10001923C, symSize: 0x10D0 }
  - { offset: 0x1FE4A, size: 0x8, addend: 0x0, symName: __ZL23stbi__decode_jpeg_imageP10stbi__jpeg, symObjAddr: 0x16F98, symBinAddr: 0x10001A30C, symSize: 0x2D4 }
  - { offset: 0x1FEB4, size: 0x8, addend: 0x0, symName: __ZL18stbi__cleanup_jpegP10stbi__jpeg, symObjAddr: 0x1726C, symBinAddr: 0x10001A5E0, symSize: 0x34 }
  - { offset: 0x1FEDF, size: 0x8, addend: 0x0, symName: __ZL14resample_row_1PhS_S_ii, symObjAddr: 0x172A0, symBinAddr: 0x10001A614, symSize: 0x24 }
  - { offset: 0x1FF4A, size: 0x8, addend: 0x0, symName: __ZL22stbi__resample_row_v_2PhS_S_ii, symObjAddr: 0x172C4, symBinAddr: 0x10001A638, symSize: 0x90 }
  - { offset: 0x1FFC4, size: 0x8, addend: 0x0, symName: __ZL22stbi__resample_row_h_2PhS_S_ii, symObjAddr: 0x17354, symBinAddr: 0x10001A6C8, symSize: 0x1D8 }
  - { offset: 0x2006A, size: 0x8, addend: 0x0, symName: __ZL26stbi__resample_row_genericPhS_S_ii, symObjAddr: 0x1752C, symBinAddr: 0x10001A8A0, symSize: 0xBC }
  - { offset: 0x200F3, size: 0x8, addend: 0x0, symName: __ZL15stbi__blinn_8x8hh, symObjAddr: 0x175E8, symBinAddr: 0x10001A95C, symSize: 0x3C }
  - { offset: 0x2013F, size: 0x8, addend: 0x0, symName: __ZL25stbi__process_scan_headerP10stbi__jpeg, symObjAddr: 0x17624, symBinAddr: 0x10001A998, symSize: 0x4B4 }
  - { offset: 0x201E3, size: 0x8, addend: 0x0, symName: __ZL30stbi__parse_entropy_coded_dataP10stbi__jpeg, symObjAddr: 0x17AD8, symBinAddr: 0x10001AE4C, symSize: 0xD14 }
  - { offset: 0x204B2, size: 0x8, addend: 0x0, symName: __ZL27stbi__skip_jpeg_junk_at_endP10stbi__jpeg, symObjAddr: 0x187EC, symBinAddr: 0x10001BB60, symSize: 0xE8 }
  - { offset: 0x204FE, size: 0x8, addend: 0x0, symName: __ZL17stbi__jpeg_finishP10stbi__jpeg, symObjAddr: 0x188D4, symBinAddr: 0x10001BC48, symSize: 0x23C }
  - { offset: 0x205AD, size: 0x8, addend: 0x0, symName: __ZL16stbi__jpeg_resetP10stbi__jpeg, symObjAddr: 0x18B10, symBinAddr: 0x10001BE84, symSize: 0xD8 }
  - { offset: 0x205D7, size: 0x8, addend: 0x0, symName: __ZL23stbi__jpeg_decode_blockP10stbi__jpegPsP13stbi__huffmanS3_S1_iPt, symObjAddr: 0x18BE8, symBinAddr: 0x10001BF5C, symSize: 0x430 }
  - { offset: 0x206FB, size: 0x8, addend: 0x0, symName: __ZL24stbi__grow_buffer_unsafeP10stbi__jpeg, symObjAddr: 0x19018, symBinAddr: 0x10001C38C, symSize: 0x164 }
  - { offset: 0x20757, size: 0x8, addend: 0x0, symName: __ZL31stbi__jpeg_decode_block_prog_dcP10stbi__jpegPsP13stbi__huffmani, symObjAddr: 0x1917C, symBinAddr: 0x10001C4F0, symSize: 0x284 }
  - { offset: 0x207DF, size: 0x8, addend: 0x0, symName: __ZL31stbi__jpeg_decode_block_prog_acP10stbi__jpegPsP13stbi__huffmanS1_, symObjAddr: 0x19400, symBinAddr: 0x10001C774, symSize: 0x7AC }
  - { offset: 0x20947, size: 0x8, addend: 0x0, symName: __ZL22stbi__jpeg_huff_decodeP10stbi__jpegP13stbi__huffman, symObjAddr: 0x19BAC, symBinAddr: 0x10001CF20, symSize: 0x334 }
  - { offset: 0x209CE, size: 0x8, addend: 0x0, symName: __ZL20stbi__extend_receiveP10stbi__jpegi, symObjAddr: 0x19EE0, symBinAddr: 0x10001D254, symSize: 0x13C }
  - { offset: 0x20A2A, size: 0x8, addend: 0x0, symName: __ZL19stbi__addints_validii, symObjAddr: 0x1A01C, symBinAddr: 0x10001D390, symSize: 0xC4 }
  - { offset: 0x20A68, size: 0x8, addend: 0x0, symName: __ZL22stbi__mul2shorts_validii, symObjAddr: 0x1A0E0, symBinAddr: 0x10001D454, symSize: 0xFC }
  - { offset: 0x20AA5, size: 0x8, addend: 0x0, symName: __ZL18stbi__jpeg_get_bitP10stbi__jpeg, symObjAddr: 0x1A1DC, symBinAddr: 0x10001D550, symSize: 0xB8 }
  - { offset: 0x20AE2, size: 0x8, addend: 0x0, symName: __ZL19stbi__jpeg_get_bitsP10stbi__jpegi, symObjAddr: 0x1A294, symBinAddr: 0x10001D608, symSize: 0x10C }
  - { offset: 0x20B2F, size: 0x8, addend: 0x0, symName: __ZL21stbi__jpeg_dequantizePsPt, symObjAddr: 0x1A3A0, symBinAddr: 0x10001D714, symSize: 0x68 }
  - { offset: 0x20B77, size: 0x8, addend: 0x0, symName: __ZL14stbi__pnm_infoP13stbi__contextPiS1_S1_, symObjAddr: 0x1A408, symBinAddr: 0x10001D77C, symSize: 0x23C }
  - { offset: 0x20C1D, size: 0x8, addend: 0x0, symName: __ZL21stbi__mad4sizes_validiiiii, symObjAddr: 0x1A644, symBinAddr: 0x10001D9B8, symSize: 0xEC }
  - { offset: 0x20C87, size: 0x8, addend: 0x0, symName: __ZL17stbi__malloc_mad4iiiii, symObjAddr: 0x1A730, symBinAddr: 0x10001DAA4, symSize: 0x98 }
  - { offset: 0x20CF2, size: 0x8, addend: 0x0, symName: __ZL25stbi__pnm_skip_whitespaceP13stbi__contextPc, symObjAddr: 0x1A7C8, symBinAddr: 0x10001DB3C, symSize: 0x138 }
  - { offset: 0x20D2B, size: 0x8, addend: 0x0, symName: __ZL20stbi__pnm_getintegerP13stbi__contextPc, symObjAddr: 0x1A900, symBinAddr: 0x10001DC74, symSize: 0x118 }
  - { offset: 0x20D78, size: 0x8, addend: 0x0, symName: __ZL17stbi__pnm_isspacec, symObjAddr: 0x1AA18, symBinAddr: 0x10001DD8C, symSize: 0xB8 }
  - { offset: 0x20DA7, size: 0x8, addend: 0x0, symName: __ZL17stbi__pnm_isdigitc, symObjAddr: 0x1AAD0, symBinAddr: 0x10001DE44, symSize: 0x48 }
  - { offset: 0x20DD5, size: 0x8, addend: 0x0, symName: __ZL18stbi__hdr_gettokenP13stbi__contextPc, symObjAddr: 0x1AB18, symBinAddr: 0x10001DE8C, symSize: 0x124 }
  - { offset: 0x20E31, size: 0x8, addend: 0x0, symName: __ZL17stbi__hdr_convertPfPhi, symObjAddr: 0x1AC3C, symBinAddr: 0x10001DFB0, symSize: 0x1D8 }
  - { offset: 0x20E97, size: 0x8, addend: 0x0, symName: __ZL18stbi__tga_get_compiiPi, symObjAddr: 0x1AE6C, symBinAddr: 0x10001E1E0, symSize: 0xF0 }
  - { offset: 0x20EE4, size: 0x8, addend: 0x0, symName: __ZL20stbi__tga_read_rgb16P13stbi__contextPh, symObjAddr: 0x1AFC0, symBinAddr: 0x10001E334, symSize: 0xA8 }
  - { offset: 0x20F68, size: 0x8, addend: 0x0, symName: __ZL21stbi__convert_8_to_16Phiii, symObjAddr: 0x1B068, symBinAddr: 0x10001E3DC, symSize: 0x10C }
  - { offset: 0x20FF1, size: 0x8, addend: 0x0, symName: __ZL23stbi__float_postprocessPfPiS0_S0_i, symObjAddr: 0x1B174, symBinAddr: 0x10001E4E8, symSize: 0xE0 }
  - { offset: 0x21074, size: 0x8, addend: 0x0, symName: __ZL16stbi__ldr_to_hdrPhiii, symObjAddr: 0x1B254, symBinAddr: 0x10001E5C8, symSize: 0x260 }
  - { offset: 0x2110B, size: 0x8, addend: 0x0, symName: __ZL16stbi__parse_zlibP10stbi__zbufi, symObjAddr: 0x1B4B4, symBinAddr: 0x10001E828, symSize: 0x1D4 }
  - { offset: 0x21166, size: 0x8, addend: 0x0, symName: __ZL23stbi__parse_zlib_headerP10stbi__zbuf, symObjAddr: 0x1B688, symBinAddr: 0x10001E9FC, symSize: 0x114 }
  - { offset: 0x211C1, size: 0x8, addend: 0x0, symName: __ZL14stbi__zreceiveP10stbi__zbufi, symObjAddr: 0x1B79C, symBinAddr: 0x10001EB10, symSize: 0x94 }
  - { offset: 0x2120D, size: 0x8, addend: 0x0, symName: __ZL30stbi__parse_uncompressed_blockP10stbi__zbuf, symObjAddr: 0x1B830, symBinAddr: 0x10001EBA4, symSize: 0x24C }
  - { offset: 0x21277, size: 0x8, addend: 0x0, symName: __ZL20stbi__zbuild_huffmanP14stbi__zhuffmanPKhi, symObjAddr: 0x1BA7C, symBinAddr: 0x10001EDF0, symSize: 0x3E8 }
  - { offset: 0x21376, size: 0x8, addend: 0x0, symName: __ZL25stbi__parse_huffman_blockP10stbi__zbuf, symObjAddr: 0x1C234, symBinAddr: 0x10001F5A8, symSize: 0x418 }
  - { offset: 0x21428, size: 0x8, addend: 0x0, symName: __ZL11stbi__zget8P10stbi__zbuf, symObjAddr: 0x1C64C, symBinAddr: 0x10001F9C0, symSize: 0x64 }
  - { offset: 0x21457, size: 0x8, addend: 0x0, symName: __ZL10stbi__zeofP10stbi__zbuf, symObjAddr: 0x1C6B0, symBinAddr: 0x10001FA24, symSize: 0x2C }
  - { offset: 0x21486, size: 0x8, addend: 0x0, symName: __ZL15stbi__fill_bitsP10stbi__zbuf, symObjAddr: 0x1C6DC, symBinAddr: 0x10001FA50, symSize: 0xB0 }
  - { offset: 0x214B0, size: 0x8, addend: 0x0, symName: __ZL13stbi__zexpandP10stbi__zbufPci, symObjAddr: 0x1C78C, symBinAddr: 0x10001FB00, symSize: 0x1AC }
  - { offset: 0x21538, size: 0x8, addend: 0x0, symName: __ZL17stbi__bit_reverseii, symObjAddr: 0x1C938, symBinAddr: 0x10001FCAC, symSize: 0x70 }
  - { offset: 0x21576, size: 0x8, addend: 0x0, symName: __ZL18stbi__bitreverse16i, symObjAddr: 0x1C9A8, symBinAddr: 0x10001FD1C, symSize: 0x98 }
  - { offset: 0x215A4, size: 0x8, addend: 0x0, symName: __ZL21stbi__zhuffman_decodeP10stbi__zbufP14stbi__zhuffman, symObjAddr: 0x1CA40, symBinAddr: 0x10001FDB4, symSize: 0x130 }
  - { offset: 0x215FF, size: 0x8, addend: 0x0, symName: __ZL30stbi__zhuffman_decode_slowpathP10stbi__zbufP14stbi__zhuffman, symObjAddr: 0x1CB70, symBinAddr: 0x10001FEE4, symSize: 0x170 }
  - { offset: 0x21669, size: 0x8, addend: 0x0, symName: __ZL28stbi__load_gif_main_outofmemP9stbi__gifPhPPi, symObjAddr: 0x1CCE0, symBinAddr: 0x100020054, symSize: 0xC8 }
  - { offset: 0x216B5, size: 0x8, addend: 0x0, symName: __ZL19stbi__hdr_test_coreP13stbi__contextPKc, symObjAddr: 0x1CDA8, symBinAddr: 0x10002011C, symSize: 0xA0 }
  - { offset: 0x21701, size: 0x8, addend: 0x0, symName: __ZL15stbi__jpeg_infoP13stbi__contextPiS1_S1_, symObjAddr: 0x1CE48, symBinAddr: 0x1000201BC, symSize: 0xA4 }
  - { offset: 0x2177A, size: 0x8, addend: 0x0, symName: __ZL14stbi__png_infoP13stbi__contextPiS1_S1_, symObjAddr: 0x1CEEC, symBinAddr: 0x100020260, symSize: 0x44 }
  - { offset: 0x217E4, size: 0x8, addend: 0x0, symName: __ZL14stbi__gif_infoP13stbi__contextPiS1_S1_, symObjAddr: 0x1CF30, symBinAddr: 0x1000202A4, symSize: 0x3C }
  - { offset: 0x2183F, size: 0x8, addend: 0x0, symName: __ZL14stbi__bmp_infoP13stbi__contextPiS1_S1_, symObjAddr: 0x1CF6C, symBinAddr: 0x1000202E0, symSize: 0x144 }
  - { offset: 0x218B8, size: 0x8, addend: 0x0, symName: __ZL14stbi__psd_infoP13stbi__contextPiS1_S1_, symObjAddr: 0x1D0B0, symBinAddr: 0x100020424, symSize: 0x1D8 }
  - { offset: 0x21940, size: 0x8, addend: 0x0, symName: __ZL14stbi__pic_infoP13stbi__contextPiS1_S1_, symObjAddr: 0x1D288, symBinAddr: 0x1000205FC, symSize: 0x2E4 }
  - { offset: 0x219FB, size: 0x8, addend: 0x0, symName: __ZL14stbi__hdr_infoP13stbi__contextPiS1_S1_, symObjAddr: 0x1D56C, symBinAddr: 0x1000208E0, symSize: 0x28C }
  - { offset: 0x21A93, size: 0x8, addend: 0x0, symName: __ZL14stbi__tga_infoP13stbi__contextPiS1_S1_, symObjAddr: 0x1D7F8, symBinAddr: 0x100020B6C, symSize: 0x3AC }
  - { offset: 0x21B66, size: 0x8, addend: 0x0, symName: __ZL19stbi__jpeg_info_rawP10stbi__jpegPiS1_S1_, symObjAddr: 0x1DBA4, symBinAddr: 0x100020F18, symSize: 0x104 }
  - { offset: 0x21BC1, size: 0x8, addend: 0x0, symName: __ZL18stbi__png_info_rawP9stbi__pngPiS1_S1_, symObjAddr: 0x1DCA8, symBinAddr: 0x10002101C, symSize: 0xF0 }
  - { offset: 0x21C1C, size: 0x8, addend: 0x0, symName: __ZL18stbi__gif_info_rawP13stbi__contextPiS1_S1_, symObjAddr: 0x1DD98, symBinAddr: 0x10002110C, symSize: 0x100 }
  - { offset: 0x21C86, size: 0x8, addend: 0x0, symName: __ZL14stbi__png_is16P13stbi__context, symObjAddr: 0x1DE98, symBinAddr: 0x10002120C, symSize: 0x84 }
  - { offset: 0x21CC3, size: 0x8, addend: 0x0, symName: __ZL14stbi__psd_is16P13stbi__context, symObjAddr: 0x1DF1C, symBinAddr: 0x100021290, symSize: 0x104 }
  - { offset: 0x21D0F, size: 0x8, addend: 0x0, symName: __ZL14stbi__pnm_is16P13stbi__context, symObjAddr: 0x1E020, symBinAddr: 0x100021394, symSize: 0x58 }
  - { offset: 0x21D3E, size: 0x8, addend: 0x0, symName: __ZN13hittable_listC2Ev, symObjAddr: 0x1E078, symBinAddr: 0x1000213EC, symSize: 0x84 }
  - { offset: 0x21D68, size: 0x8, addend: 0x0, symName: __ZN8hittableC2Ev, symObjAddr: 0x1E0FC, symBinAddr: 0x100021470, symSize: 0x24 }
  - { offset: 0x21D94, size: 0x8, addend: 0x0, symName: __ZNSt3__16vectorINS_10shared_ptrI8hittableEENS_9allocatorIS3_EEEC1B8ne180100Ev, symObjAddr: 0x1E120, symBinAddr: 0x100021494, symSize: 0x2C }
  - { offset: 0x21DBE, size: 0x8, addend: 0x0, symName: __ZN4aabbC1Ev, symObjAddr: 0x1E14C, symBinAddr: 0x1000214C0, symSize: 0x2C }
  - { offset: 0x21DE8, size: 0x8, addend: 0x0, symName: __ZNSt3__16vectorINS_10shared_ptrI8hittableEENS_9allocatorIS3_EEED1B8ne180100Ev, symObjAddr: 0x1E178, symBinAddr: 0x1000214EC, symSize: 0x2C }
  - { offset: 0x21E12, size: 0x8, addend: 0x0, symName: __ZN8hittableD2Ev, symObjAddr: 0x1E1A4, symBinAddr: 0x100021518, symSize: 0x14 }
  - { offset: 0x21E3C, size: 0x8, addend: 0x0, symName: __ZN13hittable_listD0Ev, symObjAddr: 0x1E1B8, symBinAddr: 0x10002152C, symSize: 0x30 }
  - { offset: 0x21E68, size: 0x8, addend: 0x0, symName: __ZNK13hittable_list3hitERK3ray8intervalR10hit_record, symObjAddr: 0x1E1E8, symBinAddr: 0x10002155C, symSize: 0x170 }
  - { offset: 0x21F32, size: 0x8, addend: 0x0, symName: __ZNK13hittable_list12bounding_boxEv, symObjAddr: 0x1E358, symBinAddr: 0x1000216CC, symSize: 0x38 }
  - { offset: 0x21F58, size: 0x8, addend: 0x0, symName: __ZN8hittableD1Ev, symObjAddr: 0x1E390, symBinAddr: 0x100021704, symSize: 0x14 }
  - { offset: 0x21F82, size: 0x8, addend: 0x0, symName: __ZN8hittableD0Ev, symObjAddr: 0x1E3A4, symBinAddr: 0x100021718, symSize: 0xC }
  - { offset: 0x21FAC, size: 0x8, addend: 0x0, symName: __ZNSt3__16vectorINS_10shared_ptrI8hittableEENS_9allocatorIS3_EEEC2B8ne180100Ev, symObjAddr: 0x1E3B0, symBinAddr: 0x100021724, symSize: 0x4C }
  - { offset: 0x21FE2, size: 0x8, addend: 0x0, symName: __ZNSt3__117__compressed_pairIPNS_10shared_ptrI8hittableEENS_9allocatorIS3_EEEC1B8ne180100IDnNS_18__default_init_tagEEEOT_OT0_, symObjAddr: 0x1E3FC, symBinAddr: 0x100021770, symSize: 0x3C }
  - { offset: 0x2203A, size: 0x8, addend: 0x0, symName: __ZNSt3__117__compressed_pairIPNS_10shared_ptrI8hittableEENS_9allocatorIS3_EEEC2B8ne180100IDnNS_18__default_init_tagEEEOT_OT0_, symObjAddr: 0x1E448, symBinAddr: 0x1000217BC, symSize: 0x40 }
  - { offset: 0x22092, size: 0x8, addend: 0x0, symName: __ZNSt3__122__compressed_pair_elemIPNS_10shared_ptrI8hittableEELi0ELb0EEC2B8ne180100IDnvEEOT_, symObjAddr: 0x1E488, symBinAddr: 0x1000217FC, symSize: 0x1C }
  - { offset: 0x220D4, size: 0x8, addend: 0x0, symName: __ZNSt3__122__compressed_pair_elemINS_9allocatorINS_10shared_ptrI8hittableEEEELi1ELb1EEC2B8ne180100ENS_18__default_init_tagE, symObjAddr: 0x1E4A4, symBinAddr: 0x100021818, symSize: 0x2C }
  - { offset: 0x22109, size: 0x8, addend: 0x0, symName: __ZNSt3__19allocatorINS_10shared_ptrI8hittableEEEC2B8ne180100Ev, symObjAddr: 0x1E4D0, symBinAddr: 0x100021844, symSize: 0x2C }
  - { offset: 0x22133, size: 0x8, addend: 0x0, symName: __ZNSt3__116__non_trivial_ifILb1ENS_9allocatorINS_10shared_ptrI8hittableEEEEEC2B8ne180100Ev, symObjAddr: 0x1E4FC, symBinAddr: 0x100021870, symSize: 0x14 }
  - { offset: 0x2215D, size: 0x8, addend: 0x0, symName: __ZN4aabbC2Ev, symObjAddr: 0x1E510, symBinAddr: 0x100021884, symSize: 0x44 }
  - { offset: 0x22187, size: 0x8, addend: 0x0, symName: __ZN8intervalC1Ev, symObjAddr: 0x1E554, symBinAddr: 0x1000218C8, symSize: 0x2C }
  - { offset: 0x221B1, size: 0x8, addend: 0x0, symName: __ZN8intervalC2Ev, symObjAddr: 0x1E580, symBinAddr: 0x1000218F4, symSize: 0x2C }
  - { offset: 0x221DB, size: 0x8, addend: 0x0, symName: __ZNSt3__16vectorINS_10shared_ptrI8hittableEENS_9allocatorIS3_EEED2B8ne180100Ev, symObjAddr: 0x1E5AC, symBinAddr: 0x100021920, symSize: 0x44 }
  - { offset: 0x22205, size: 0x8, addend: 0x0, symName: __ZNSt3__16vectorINS_10shared_ptrI8hittableEENS_9allocatorIS3_EEE16__destroy_vectorC1B8ne180100ERS6_, symObjAddr: 0x1E5F0, symBinAddr: 0x100021964, symSize: 0x34 }
  - { offset: 0x2223E, size: 0x8, addend: 0x0, symName: __ZNSt3__16vectorINS_10shared_ptrI8hittableEENS_9allocatorIS3_EEE16__destroy_vectorclB8ne180100Ev, symObjAddr: 0x1E624, symBinAddr: 0x100021998, symSize: 0x90 }
  - { offset: 0x22264, size: 0x8, addend: 0x0, symName: __ZNSt3__16vectorINS_10shared_ptrI8hittableEENS_9allocatorIS3_EEE16__destroy_vectorC2B8ne180100ERS6_, symObjAddr: 0x1E6B4, symBinAddr: 0x100021A28, symSize: 0x20 }
  - { offset: 0x2229D, size: 0x8, addend: 0x0, symName: __ZNSt3__16vectorINS_10shared_ptrI8hittableEENS_9allocatorIS3_EEE7__clearB8ne180100Ev, symObjAddr: 0x1E6D4, symBinAddr: 0x100021A48, symSize: 0x28 }
  - { offset: 0x222C3, size: 0x8, addend: 0x0, symName: __ZNKSt3__16vectorINS_10shared_ptrI8hittableEENS_9allocatorIS3_EEE17__annotate_deleteB8ne180100Ev, symObjAddr: 0x1E6FC, symBinAddr: 0x100021A70, symSize: 0x10 }
  - { offset: 0x222E9, size: 0x8, addend: 0x0, symName: __ZNSt3__116allocator_traitsINS_9allocatorINS_10shared_ptrI8hittableEEEEE10deallocateB8ne180100ERS5_PS4_m, symObjAddr: 0x1E70C, symBinAddr: 0x100021A80, symSize: 0x34 }
  - { offset: 0x2232B, size: 0x8, addend: 0x0, symName: __ZNSt3__16vectorINS_10shared_ptrI8hittableEENS_9allocatorIS3_EEE7__allocB8ne180100Ev, symObjAddr: 0x1E740, symBinAddr: 0x100021AB4, symSize: 0x28 }
  - { offset: 0x22351, size: 0x8, addend: 0x0, symName: __ZNKSt3__16vectorINS_10shared_ptrI8hittableEENS_9allocatorIS3_EEE8capacityB8ne180100Ev, symObjAddr: 0x1E768, symBinAddr: 0x100021ADC, symSize: 0x40 }
  - { offset: 0x22377, size: 0x8, addend: 0x0, symName: __ZNSt3__16vectorINS_10shared_ptrI8hittableEENS_9allocatorIS3_EEE22__base_destruct_at_endB8ne180100EPS3_, symObjAddr: 0x1E7A8, symBinAddr: 0x100021B1C, symSize: 0x8C }
  - { offset: 0x223BB, size: 0x8, addend: 0x0, symName: __ZNSt3__116allocator_traitsINS_9allocatorINS_10shared_ptrI8hittableEEEEE7destroyB8ne180100IS4_vEEvRS5_PT_, symObjAddr: 0x1E834, symBinAddr: 0x100021BA8, symSize: 0x2C }
  - { offset: 0x223F8, size: 0x8, addend: 0x0, symName: __ZNSt3__19allocatorINS_10shared_ptrI8hittableEEE7destroyB8ne180100EPS3_, symObjAddr: 0x1E874, symBinAddr: 0x100021BE8, symSize: 0x28 }
  - { offset: 0x2242C, size: 0x8, addend: 0x0, symName: __ZNSt3__19allocatorINS_10shared_ptrI8hittableEEE10deallocateB8ne180100EPS3_m, symObjAddr: 0x1E89C, symBinAddr: 0x100021C10, symSize: 0x40 }
  - { offset: 0x2246E, size: 0x8, addend: 0x0, symName: __ZNSt3__117__compressed_pairIPNS_10shared_ptrI8hittableEENS_9allocatorIS3_EEE6secondB8ne180100Ev, symObjAddr: 0x1EA04, symBinAddr: 0x100021D78, symSize: 0x24 }
  - { offset: 0x22494, size: 0x8, addend: 0x0, symName: __ZNSt3__122__compressed_pair_elemINS_9allocatorINS_10shared_ptrI8hittableEEEELi1ELb1EE5__getB8ne180100Ev, symObjAddr: 0x1EA28, symBinAddr: 0x100021D9C, symSize: 0x14 }
  - { offset: 0x224BA, size: 0x8, addend: 0x0, symName: __ZNKSt3__16vectorINS_10shared_ptrI8hittableEENS_9allocatorIS3_EEE9__end_capB8ne180100Ev, symObjAddr: 0x1EA3C, symBinAddr: 0x100021DB0, symSize: 0x28 }
  - { offset: 0x224E0, size: 0x8, addend: 0x0, symName: __ZNKSt3__117__compressed_pairIPNS_10shared_ptrI8hittableEENS_9allocatorIS3_EEE5firstB8ne180100Ev, symObjAddr: 0x1EA64, symBinAddr: 0x100021DD8, symSize: 0x24 }
  - { offset: 0x22506, size: 0x8, addend: 0x0, symName: __ZNKSt3__122__compressed_pair_elemIPNS_10shared_ptrI8hittableEELi0ELb0EE5__getB8ne180100Ev, symObjAddr: 0x1EA88, symBinAddr: 0x100021DFC, symSize: 0x14 }
  - { offset: 0x2252C, size: 0x8, addend: 0x0, symName: __ZN10hit_recordC1Ev, symObjAddr: 0x1EA9C, symBinAddr: 0x100021E10, symSize: 0x2C }
  - { offset: 0x22558, size: 0x8, addend: 0x0, symName: __ZNKSt3__16vectorINS_10shared_ptrI8hittableEENS_9allocatorIS3_EEE5beginB8ne180100Ev, symObjAddr: 0x1EAC8, symBinAddr: 0x100021E3C, symSize: 0x30 }
  - { offset: 0x22580, size: 0x8, addend: 0x0, symName: __ZNKSt3__16vectorINS_10shared_ptrI8hittableEENS_9allocatorIS3_EEE3endB8ne180100Ev, symObjAddr: 0x1EAF8, symBinAddr: 0x100021E6C, symSize: 0x30 }
  - { offset: 0x225A8, size: 0x8, addend: 0x0, symName: __ZNKSt3__111__wrap_iterIPKNS_10shared_ptrI8hittableEEEdeB8ne180100Ev, symObjAddr: 0x1EB5C, symBinAddr: 0x100021ED0, symSize: 0x18 }
  - { offset: 0x225CE, size: 0x8, addend: 0x0, symName: __ZNKSt3__110shared_ptrI8hittableEptB8ne180100Ev, symObjAddr: 0x1EB74, symBinAddr: 0x100021EE8, symSize: 0x18 }
  - { offset: 0x225F4, size: 0x8, addend: 0x0, symName: __ZN10hit_recordaSERKS_, symObjAddr: 0x1EB8C, symBinAddr: 0x100021F00, symSize: 0x60 }
  - { offset: 0x22625, size: 0x8, addend: 0x0, symName: __ZNSt3__111__wrap_iterIPKNS_10shared_ptrI8hittableEEEppB8ne180100Ev, symObjAddr: 0x1EBEC, symBinAddr: 0x100021F60, symSize: 0x20 }
  - { offset: 0x2264B, size: 0x8, addend: 0x0, symName: __ZN10hit_recordD1Ev, symObjAddr: 0x1EC0C, symBinAddr: 0x100021F80, symSize: 0x2C }
  - { offset: 0x22677, size: 0x8, addend: 0x0, symName: __ZN10hit_recordC2Ev, symObjAddr: 0x1EC38, symBinAddr: 0x100021FAC, symSize: 0x44 }
  - { offset: 0x226A3, size: 0x8, addend: 0x0, symName: __ZN4vec3C1Ev, symObjAddr: 0x1EC7C, symBinAddr: 0x100021FF0, symSize: 0x2C }
  - { offset: 0x226CD, size: 0x8, addend: 0x0, symName: __ZN4vec3C2Ev, symObjAddr: 0x1ECA8, symBinAddr: 0x10002201C, symSize: 0x38 }
  - { offset: 0x226F7, size: 0x8, addend: 0x0, symName: __ZNKSt3__16vectorINS_10shared_ptrI8hittableEENS_9allocatorIS3_EEE11__make_iterB8ne180100EPKS3_, symObjAddr: 0x1ECE0, symBinAddr: 0x100022054, symSize: 0x30 }
  - { offset: 0x2272C, size: 0x8, addend: 0x0, symName: __ZNSt3__111__wrap_iterIPKNS_10shared_ptrI8hittableEEEC1B8ne180100ES5_, symObjAddr: 0x1ED10, symBinAddr: 0x100022084, symSize: 0x34 }
  - { offset: 0x22764, size: 0x8, addend: 0x0, symName: __ZNSt3__111__wrap_iterIPKNS_10shared_ptrI8hittableEEEC2B8ne180100ES5_, symObjAddr: 0x1ED44, symBinAddr: 0x1000220B8, symSize: 0x20 }
  - { offset: 0x2279C, size: 0x8, addend: 0x0, symName: __ZNKSt3__111__wrap_iterIPKNS_10shared_ptrI8hittableEEE4baseB8ne180100Ev, symObjAddr: 0x1EDAC, symBinAddr: 0x100022120, symSize: 0x18 }
  - { offset: 0x227C2, size: 0x8, addend: 0x0, symName: __ZNSt3__110shared_ptrI8materialEaSB8ne180100ERKS2_, symObjAddr: 0x1EDC4, symBinAddr: 0x100022138, symSize: 0x50 }
  - { offset: 0x227F7, size: 0x8, addend: 0x0, symName: __ZNSt3__110shared_ptrI8materialEC1B8ne180100ERKS2_, symObjAddr: 0x1EE14, symBinAddr: 0x100022188, symSize: 0x34 }
  - { offset: 0x22830, size: 0x8, addend: 0x0, symName: __ZNSt3__110shared_ptrI8materialE4swapB8ne180100ERS2_, symObjAddr: 0x1EE48, symBinAddr: 0x1000221BC, symSize: 0x44 }
  - { offset: 0x22865, size: 0x8, addend: 0x0, symName: __ZNSt3__110shared_ptrI8materialEC2B8ne180100ERKS2_, symObjAddr: 0x1EE8C, symBinAddr: 0x100022200, symSize: 0x70 }
  - { offset: 0x2289E, size: 0x8, addend: 0x0, symName: __ZNSt3__119__shared_weak_count12__add_sharedB8ne180100Ev, symObjAddr: 0x1EEFC, symBinAddr: 0x100022270, symSize: 0x24 }
  - { offset: 0x228C4, size: 0x8, addend: 0x0, symName: __ZNSt3__114__shared_count12__add_sharedB8ne180100Ev, symObjAddr: 0x1EF20, symBinAddr: 0x100022294, symSize: 0x28 }
  - { offset: 0x228EA, size: 0x8, addend: 0x0, symName: __ZN10hit_recordD2Ev, symObjAddr: 0x1EFF0, symBinAddr: 0x100022364, symSize: 0x30 }
  - { offset: 0x22916, size: 0x8, addend: 0x0, symName: __ZN4vec3C2Eddd, symObjAddr: 0x1F020, symBinAddr: 0x100022394, symSize: 0x38 }
  - { offset: 0x2296A, size: 0x8, addend: 0x0, symName: __ZNSt3__16vectorINS_10shared_ptrI8hittableEENS_9allocatorIS3_EEE9push_backB8ne180100ERKS3_, symObjAddr: 0x1F058, symBinAddr: 0x1000223CC, symSize: 0x90 }
  - { offset: 0x229B0, size: 0x8, addend: 0x0, symName: __ZN4aabbC1ERKS_S1_, symObjAddr: 0x1F0E8, symBinAddr: 0x10002245C, symSize: 0x3C }
  - { offset: 0x229F6, size: 0x8, addend: 0x0, symName: __ZNSt3__16vectorINS_10shared_ptrI8hittableEENS_9allocatorIS3_EEE9__end_capB8ne180100Ev, symObjAddr: 0x1F124, symBinAddr: 0x100022498, symSize: 0x28 }
  - { offset: 0x22A1C, size: 0x8, addend: 0x0, symName: __ZNSt3__16vectorINS_10shared_ptrI8hittableEENS_9allocatorIS3_EEE22__construct_one_at_endB8ne180100IJRKS3_EEEvDpOT_, symObjAddr: 0x1F14C, symBinAddr: 0x1000224C0, symSize: 0x90 }
  - { offset: 0x22A6B, size: 0x8, addend: 0x0, symName: __ZNSt3__16vectorINS_10shared_ptrI8hittableEENS_9allocatorIS3_EEE21__push_back_slow_pathIRKS3_EEPS3_OT_, symObjAddr: 0x1F1DC, symBinAddr: 0x100022550, symSize: 0xE8 }
  - { offset: 0x22AC9, size: 0x8, addend: 0x0, symName: __ZNSt3__117__compressed_pairIPNS_10shared_ptrI8hittableEENS_9allocatorIS3_EEE5firstB8ne180100Ev, symObjAddr: 0x1F2C4, symBinAddr: 0x100022638, symSize: 0x24 }
  - { offset: 0x22AEF, size: 0x8, addend: 0x0, symName: __ZNSt3__122__compressed_pair_elemIPNS_10shared_ptrI8hittableEELi0ELb0EE5__getB8ne180100Ev, symObjAddr: 0x1F2E8, symBinAddr: 0x10002265C, symSize: 0x14 }
  - { offset: 0x22B2E, size: 0x8, addend: 0x0, symName: __ZNSt3__16vectorINS_10shared_ptrI8hittableEENS_9allocatorIS3_EEE21_ConstructTransactionC1B8ne180100ERS6_m, symObjAddr: 0x1F2FC, symBinAddr: 0x100022670, symSize: 0x3C }
  - { offset: 0x22B76, size: 0x8, addend: 0x0, symName: __ZNSt3__116allocator_traitsINS_9allocatorINS_10shared_ptrI8hittableEEEEE9constructB8ne180100IS4_JRKS4_EvEEvRS5_PT_DpOT0_, symObjAddr: 0x1F338, symBinAddr: 0x1000226AC, symSize: 0x34 }
  - { offset: 0x22BCD, size: 0x8, addend: 0x0, symName: __ZNSt3__16vectorINS_10shared_ptrI8hittableEENS_9allocatorIS3_EEE21_ConstructTransactionD1B8ne180100Ev, symObjAddr: 0x1F36C, symBinAddr: 0x1000226E0, symSize: 0x2C }
  - { offset: 0x22BF7, size: 0x8, addend: 0x0, symName: __ZNSt3__16vectorINS_10shared_ptrI8hittableEENS_9allocatorIS3_EEE21_ConstructTransactionC2B8ne180100ERS6_m, symObjAddr: 0x1F398, symBinAddr: 0x10002270C, symSize: 0x44 }
  - { offset: 0x22C3F, size: 0x8, addend: 0x0, symName: __ZNSt3__19allocatorINS_10shared_ptrI8hittableEEE9constructB8ne180100IS3_JRKS3_EEEvPT_DpOT0_, symObjAddr: 0x1F3DC, symBinAddr: 0x100022750, symSize: 0x30 }
  - { offset: 0x22C95, size: 0x8, addend: 0x0, symName: __ZNSt3__110shared_ptrI8hittableEC1B8ne180100ERKS2_, symObjAddr: 0x1F40C, symBinAddr: 0x100022780, symSize: 0x34 }
  - { offset: 0x22CCE, size: 0x8, addend: 0x0, symName: __ZNSt3__110shared_ptrI8hittableEC2B8ne180100ERKS2_, symObjAddr: 0x1F440, symBinAddr: 0x1000227B4, symSize: 0x70 }
  - { offset: 0x22D07, size: 0x8, addend: 0x0, symName: __ZNSt3__16vectorINS_10shared_ptrI8hittableEENS_9allocatorIS3_EEE21_ConstructTransactionD2B8ne180100Ev, symObjAddr: 0x1F4B0, symBinAddr: 0x100022824, symSize: 0x20 }
  - { offset: 0x22D31, size: 0x8, addend: 0x0, symName: __ZNKSt3__16vectorINS_10shared_ptrI8hittableEENS_9allocatorIS3_EEE11__recommendB8ne180100Em, symObjAddr: 0x1F4D0, symBinAddr: 0x100022844, symSize: 0xB4 }
  - { offset: 0x22D86, size: 0x8, addend: 0x0, symName: __ZNKSt3__16vectorINS_10shared_ptrI8hittableEENS_9allocatorIS3_EEE4sizeB8ne180100Ev, symObjAddr: 0x1F584, symBinAddr: 0x1000228F8, symSize: 0x28 }
  - { offset: 0x22DAC, size: 0x8, addend: 0x0, symName: __ZNSt3__114__split_bufferINS_10shared_ptrI8hittableEERNS_9allocatorIS3_EEEC1EmmS6_, symObjAddr: 0x1F5AC, symBinAddr: 0x100022920, symSize: 0x44 }
  - { offset: 0x22E02, size: 0x8, addend: 0x0, symName: __ZNSt3__114__split_bufferINS_10shared_ptrI8hittableEERNS_9allocatorIS3_EEED1Ev, symObjAddr: 0x1F700, symBinAddr: 0x100022A74, symSize: 0x2C }
  - { offset: 0x22E2E, size: 0x8, addend: 0x0, symName: __ZNKSt3__16vectorINS_10shared_ptrI8hittableEENS_9allocatorIS3_EEE8max_sizeEv, symObjAddr: 0x1F72C, symBinAddr: 0x100022AA0, symSize: 0x60 }
  - { offset: 0x22E56, size: 0x8, addend: 0x0, symName: __ZNKSt3__16vectorINS_10shared_ptrI8hittableEENS_9allocatorIS3_EEE20__throw_length_errorB8ne180100Ev, symObjAddr: 0x1F78C, symBinAddr: 0x100022B00, symSize: 0x1C }
  - { offset: 0x22E86, size: 0x8, addend: 0x0, symName: __ZNSt3__116allocator_traitsINS_9allocatorINS_10shared_ptrI8hittableEEEEE8max_sizeB8ne180100IS5_vEEmRKS5_, symObjAddr: 0x1F800, symBinAddr: 0x100022B74, symSize: 0x24 }
  - { offset: 0x22EB4, size: 0x8, addend: 0x0, symName: __ZNKSt3__16vectorINS_10shared_ptrI8hittableEENS_9allocatorIS3_EEE7__allocB8ne180100Ev, symObjAddr: 0x1F824, symBinAddr: 0x100022B98, symSize: 0x28 }
  - { offset: 0x22EDA, size: 0x8, addend: 0x0, symName: __ZNSt3__114numeric_limitsIlE3maxB8ne180100Ev, symObjAddr: 0x1F84C, symBinAddr: 0x100022BC0, symSize: 0x14 }
  - { offset: 0x22F02, size: 0x8, addend: 0x0, symName: __ZNKSt3__16__lessIvvEclB8ne180100ImmEEbRKT_RKT0_, symObjAddr: 0x1F8B4, symBinAddr: 0x100022C28, symSize: 0x34 }
  - { offset: 0x22F56, size: 0x8, addend: 0x0, symName: __ZNKSt3__19allocatorINS_10shared_ptrI8hittableEEE8max_sizeB8ne180100Ev, symObjAddr: 0x1F8E8, symBinAddr: 0x100022C5C, symSize: 0x14 }
  - { offset: 0x22F7C, size: 0x8, addend: 0x0, symName: __ZNKSt3__117__compressed_pairIPNS_10shared_ptrI8hittableEENS_9allocatorIS3_EEE6secondB8ne180100Ev, symObjAddr: 0x1F8FC, symBinAddr: 0x100022C70, symSize: 0x24 }
  - { offset: 0x22FA2, size: 0x8, addend: 0x0, symName: __ZNKSt3__122__compressed_pair_elemINS_9allocatorINS_10shared_ptrI8hittableEEEELi1ELb1EE5__getB8ne180100Ev, symObjAddr: 0x1F920, symBinAddr: 0x100022C94, symSize: 0x14 }
  - { offset: 0x22FC8, size: 0x8, addend: 0x0, symName: __ZNSt3__123__libcpp_numeric_limitsIlLb1EE3maxB8ne180100Ev, symObjAddr: 0x1F934, symBinAddr: 0x100022CA8, symSize: 0x8 }
  - { offset: 0x22FDC, size: 0x8, addend: 0x0, symName: __ZNSt12length_errorC1B8ne180100EPKc, symObjAddr: 0x1F9A0, symBinAddr: 0x100022D14, symSize: 0x34 }
  - { offset: 0x23014, size: 0x8, addend: 0x0, symName: __ZNSt12length_errorC2B8ne180100EPKc, symObjAddr: 0x1F9D4, symBinAddr: 0x100022D48, symSize: 0x44 }
  - { offset: 0x2304C, size: 0x8, addend: 0x0, symName: __ZNSt3__114__split_bufferINS_10shared_ptrI8hittableEERNS_9allocatorIS3_EEEC2EmmS6_, symObjAddr: 0x1FA6C, symBinAddr: 0x100022DE0, symSize: 0xD4 }
  - { offset: 0x230BF, size: 0x8, addend: 0x0, symName: __ZNSt3__117__compressed_pairIPNS_10shared_ptrI8hittableEERNS_9allocatorIS3_EEEC1B8ne180100IDnS7_EEOT_OT0_, symObjAddr: 0x1FB40, symBinAddr: 0x100022EB4, symSize: 0x3C }
  - { offset: 0x23117, size: 0x8, addend: 0x0, symName: __ZNSt3__114__split_bufferINS_10shared_ptrI8hittableEERNS_9allocatorIS3_EEE7__allocB8ne180100Ev, symObjAddr: 0x1FBBC, symBinAddr: 0x100022F30, symSize: 0x28 }
  - { offset: 0x2313D, size: 0x8, addend: 0x0, symName: __ZNSt3__114__split_bufferINS_10shared_ptrI8hittableEERNS_9allocatorIS3_EEE9__end_capB8ne180100Ev, symObjAddr: 0x1FBE4, symBinAddr: 0x100022F58, symSize: 0x28 }
  - { offset: 0x23163, size: 0x8, addend: 0x0, symName: __ZNSt3__117__compressed_pairIPNS_10shared_ptrI8hittableEERNS_9allocatorIS3_EEEC2B8ne180100IDnS7_EEOT_OT0_, symObjAddr: 0x1FC0C, symBinAddr: 0x100022F80, symSize: 0x48 }
  - { offset: 0x231BB, size: 0x8, addend: 0x0, symName: __ZNSt3__122__compressed_pair_elemIRNS_9allocatorINS_10shared_ptrI8hittableEEEELi1ELb0EEC2B8ne180100IS6_vEEOT_, symObjAddr: 0x1FC54, symBinAddr: 0x100022FC8, symSize: 0x20 }
  - { offset: 0x231FD, size: 0x8, addend: 0x0, symName: __ZNSt3__19allocatorINS_10shared_ptrI8hittableEEE8allocateB8ne180100Em, symObjAddr: 0x1FC74, symBinAddr: 0x100022FE8, symSize: 0x58 }
  - { offset: 0x23231, size: 0x8, addend: 0x0, symName: __ZNSt3__117__compressed_pairIPNS_10shared_ptrI8hittableEERNS_9allocatorIS3_EEE6secondB8ne180100Ev, symObjAddr: 0x1FDB0, symBinAddr: 0x100023124, symSize: 0x28 }
  - { offset: 0x23257, size: 0x8, addend: 0x0, symName: __ZNSt3__122__compressed_pair_elemIRNS_9allocatorINS_10shared_ptrI8hittableEEEELi1ELb0EE5__getB8ne180100Ev, symObjAddr: 0x1FDD8, symBinAddr: 0x10002314C, symSize: 0x18 }
  - { offset: 0x2327D, size: 0x8, addend: 0x0, symName: __ZNSt3__117__compressed_pairIPNS_10shared_ptrI8hittableEERNS_9allocatorIS3_EEE5firstB8ne180100Ev, symObjAddr: 0x1FDF0, symBinAddr: 0x100023164, symSize: 0x24 }
  - { offset: 0x232A3, size: 0x8, addend: 0x0, symName: __ZNSt3__116reverse_iteratorIPNS_10shared_ptrI8hittableEEEC1B8ne180100ES4_, symObjAddr: 0x1FF40, symBinAddr: 0x1000232B4, symSize: 0x34 }
  - { offset: 0x232DB, size: 0x8, addend: 0x0, symName: __ZNKSt3__116reverse_iteratorIPNS_10shared_ptrI8hittableEEE4baseB8ne180100Ev, symObjAddr: 0x1FF74, symBinAddr: 0x1000232E8, symSize: 0x18 }
  - { offset: 0x23301, size: 0x8, addend: 0x0, symName: __ZNKSt3__16vectorINS_10shared_ptrI8hittableEENS_9allocatorIS3_EEE14__annotate_newB8ne180100Em, symObjAddr: 0x1FFC8, symBinAddr: 0x10002333C, symSize: 0x14 }
  - { offset: 0x23336, size: 0x8, addend: 0x0, symName: __ZNSt3__129_AllocatorDestroyRangeReverseINS_9allocatorINS_10shared_ptrI8hittableEEEENS_16reverse_iteratorIPS4_EEEC1B8ne180100ERS5_RS8_SB_, symObjAddr: 0x20028, symBinAddr: 0x10002339C, symSize: 0x44 }
  - { offset: 0x2338D, size: 0x8, addend: 0x0, symName: __ZNSt3__116allocator_traitsINS_9allocatorINS_10shared_ptrI8hittableEEEEE9constructB8ne180100IS4_JS4_EvEEvRS5_PT_DpOT0_, symObjAddr: 0x200B4, symBinAddr: 0x100023428, symSize: 0x34 }
  - { offset: 0x233E4, size: 0x8, addend: 0x0, symName: __ZNKSt3__116reverse_iteratorIPNS_10shared_ptrI8hittableEEEdeB8ne180100Ev, symObjAddr: 0x2010C, symBinAddr: 0x100023480, symSize: 0x28 }
  - { offset: 0x23418, size: 0x8, addend: 0x0, symName: __ZNSt3__116reverse_iteratorIPNS_10shared_ptrI8hittableEEEppB8ne180100Ev, symObjAddr: 0x20134, symBinAddr: 0x1000234A8, symSize: 0x20 }
  - { offset: 0x2343E, size: 0x8, addend: 0x0, symName: __ZNSt3__128__exception_guard_exceptionsINS_29_AllocatorDestroyRangeReverseINS_9allocatorINS_10shared_ptrI8hittableEEEENS_16reverse_iteratorIPS5_EEEEE10__completeB8ne180100Ev, symObjAddr: 0x20154, symBinAddr: 0x1000234C8, symSize: 0x1C }
  - { offset: 0x23464, size: 0x8, addend: 0x0, symName: __ZNSt3__128__exception_guard_exceptionsINS_29_AllocatorDestroyRangeReverseINS_9allocatorINS_10shared_ptrI8hittableEEEENS_16reverse_iteratorIPS5_EEEEED1B8ne180100Ev, symObjAddr: 0x20170, symBinAddr: 0x1000234E4, symSize: 0x2C }
  - { offset: 0x2348E, size: 0x8, addend: 0x0, symName: __ZNSt3__128__exception_guard_exceptionsINS_29_AllocatorDestroyRangeReverseINS_9allocatorINS_10shared_ptrI8hittableEEEENS_16reverse_iteratorIPS5_EEEEEC1B8ne180100ESA_, symObjAddr: 0x2019C, symBinAddr: 0x100023510, symSize: 0x34 }
  - { offset: 0x234C7, size: 0x8, addend: 0x0, symName: __ZNSt3__128__exception_guard_exceptionsINS_29_AllocatorDestroyRangeReverseINS_9allocatorINS_10shared_ptrI8hittableEEEENS_16reverse_iteratorIPS5_EEEEEC2B8ne180100ESA_, symObjAddr: 0x201D0, symBinAddr: 0x100023544, symSize: 0x30 }
  - { offset: 0x23500, size: 0x8, addend: 0x0, symName: __ZNSt3__129_AllocatorDestroyRangeReverseINS_9allocatorINS_10shared_ptrI8hittableEEEENS_16reverse_iteratorIPS4_EEEC2B8ne180100ERS5_RS8_SB_, symObjAddr: 0x20200, symBinAddr: 0x100023574, symSize: 0x38 }
  - { offset: 0x23557, size: 0x8, addend: 0x0, symName: __ZNSt3__19allocatorINS_10shared_ptrI8hittableEEE9constructB8ne180100IS3_JS3_EEEvPT_DpOT0_, symObjAddr: 0x20238, symBinAddr: 0x1000235AC, symSize: 0x30 }
  - { offset: 0x235AD, size: 0x8, addend: 0x0, symName: __ZNSt3__110shared_ptrI8hittableEC1B8ne180100EOS2_, symObjAddr: 0x20268, symBinAddr: 0x1000235DC, symSize: 0x34 }
  - { offset: 0x235E6, size: 0x8, addend: 0x0, symName: __ZNSt3__110shared_ptrI8hittableEC2B8ne180100EOS2_, symObjAddr: 0x2029C, symBinAddr: 0x100023610, symSize: 0x40 }
  - { offset: 0x23624, size: 0x8, addend: 0x0, symName: __ZNSt3__119__to_address_helperINS_16reverse_iteratorIPNS_10shared_ptrI8hittableEEEEvE6__callB8ne180100ERKS6_, symObjAddr: 0x202DC, symBinAddr: 0x100023650, symSize: 0x38 }
  - { offset: 0x23647, size: 0x8, addend: 0x0, symName: __ZNKSt3__116reverse_iteratorIPNS_10shared_ptrI8hittableEEEptB8ne180100Ev, symObjAddr: 0x20314, symBinAddr: 0x100023688, symSize: 0x24 }
  - { offset: 0x2366D, size: 0x8, addend: 0x0, symName: __ZNSt3__128__exception_guard_exceptionsINS_29_AllocatorDestroyRangeReverseINS_9allocatorINS_10shared_ptrI8hittableEEEENS_16reverse_iteratorIPS5_EEEEED2B8ne180100Ev, symObjAddr: 0x20338, symBinAddr: 0x1000236AC, symSize: 0x50 }
  - { offset: 0x23697, size: 0x8, addend: 0x0, symName: __ZNKSt3__129_AllocatorDestroyRangeReverseINS_9allocatorINS_10shared_ptrI8hittableEEEENS_16reverse_iteratorIPS4_EEEclB8ne180100Ev, symObjAddr: 0x20388, symBinAddr: 0x1000236FC, symSize: 0xB4 }
  - { offset: 0x236BE, size: 0x8, addend: 0x0, symName: __ZNSt3__116reverse_iteratorINS0_IPNS_10shared_ptrI8hittableEEEEEC1B8ne180100ES5_, symObjAddr: 0x204AC, symBinAddr: 0x100023820, symSize: 0x3C }
  - { offset: 0x236F6, size: 0x8, addend: 0x0, symName: __ZNSt3__116reverse_iteratorINS0_IPNS_10shared_ptrI8hittableEEEEEppB8ne180100Ev, symObjAddr: 0x2056C, symBinAddr: 0x1000238E0, symSize: 0x30 }
  - { offset: 0x2371C, size: 0x8, addend: 0x0, symName: __ZNKSt3__116reverse_iteratorINS0_IPNS_10shared_ptrI8hittableEEEEE4baseB8ne180100Ev, symObjAddr: 0x2059C, symBinAddr: 0x100023910, symSize: 0x24 }
  - { offset: 0x23747, size: 0x8, addend: 0x0, symName: __ZNSt3__119__to_address_helperINS_16reverse_iteratorINS1_IPNS_10shared_ptrI8hittableEEEEEEvE6__callB8ne180100ERKS7_, symObjAddr: 0x205C0, symBinAddr: 0x100023934, symSize: 0x38 }
  - { offset: 0x2376A, size: 0x8, addend: 0x0, symName: __ZNKSt3__116reverse_iteratorINS0_IPNS_10shared_ptrI8hittableEEEEEptB8ne180100Ev, symObjAddr: 0x205F8, symBinAddr: 0x10002396C, symSize: 0x24 }
  - { offset: 0x23790, size: 0x8, addend: 0x0, symName: __ZNKSt3__116reverse_iteratorINS0_IPNS_10shared_ptrI8hittableEEEEEdeB8ne180100Ev, symObjAddr: 0x2061C, symBinAddr: 0x100023990, symSize: 0x34 }
  - { offset: 0x237C4, size: 0x8, addend: 0x0, symName: __ZNSt3__116reverse_iteratorIPNS_10shared_ptrI8hittableEEEmmB8ne180100Ev, symObjAddr: 0x20650, symBinAddr: 0x1000239C4, symSize: 0x20 }
  - { offset: 0x237EA, size: 0x8, addend: 0x0, symName: __ZNSt3__116reverse_iteratorINS0_IPNS_10shared_ptrI8hittableEEEEEC2B8ne180100ES5_, symObjAddr: 0x20670, symBinAddr: 0x1000239E4, symSize: 0x2C }
  - { offset: 0x23822, size: 0x8, addend: 0x0, symName: __ZNSt3__116reverse_iteratorIPNS_10shared_ptrI8hittableEEEC2B8ne180100ES4_, symObjAddr: 0x2069C, symBinAddr: 0x100023A10, symSize: 0x28 }
  - { offset: 0x2385A, size: 0x8, addend: 0x0, symName: __ZNSt3__114__split_bufferINS_10shared_ptrI8hittableEERNS_9allocatorIS3_EEED2Ev, symObjAddr: 0x206C4, symBinAddr: 0x100023A38, symSize: 0x8C }
  - { offset: 0x23886, size: 0x8, addend: 0x0, symName: __ZNSt3__114__split_bufferINS_10shared_ptrI8hittableEERNS_9allocatorIS3_EEE5clearB8ne180100Ev, symObjAddr: 0x20750, symBinAddr: 0x100023AC4, symSize: 0x28 }
  - { offset: 0x238AC, size: 0x8, addend: 0x0, symName: __ZNKSt3__114__split_bufferINS_10shared_ptrI8hittableEERNS_9allocatorIS3_EEE8capacityB8ne180100Ev, symObjAddr: 0x20778, symBinAddr: 0x100023AEC, symSize: 0x40 }
  - { offset: 0x238D2, size: 0x8, addend: 0x0, symName: __ZNSt3__114__split_bufferINS_10shared_ptrI8hittableEERNS_9allocatorIS3_EEE17__destruct_at_endB8ne180100EPS3_, symObjAddr: 0x207B8, symBinAddr: 0x100023B2C, symSize: 0x2C }
  - { offset: 0x23906, size: 0x8, addend: 0x0, symName: __ZNSt3__114__split_bufferINS_10shared_ptrI8hittableEERNS_9allocatorIS3_EEE17__destruct_at_endB8ne180100EPS3_NS_17integral_constantIbLb0EEE, symObjAddr: 0x207E4, symBinAddr: 0x100023B58, symSize: 0x80 }
  - { offset: 0x23947, size: 0x8, addend: 0x0, symName: __ZNKSt3__114__split_bufferINS_10shared_ptrI8hittableEERNS_9allocatorIS3_EEE9__end_capB8ne180100Ev, symObjAddr: 0x20864, symBinAddr: 0x100023BD8, symSize: 0x28 }
  - { offset: 0x2396D, size: 0x8, addend: 0x0, symName: __ZNKSt3__117__compressed_pairIPNS_10shared_ptrI8hittableEERNS_9allocatorIS3_EEE5firstB8ne180100Ev, symObjAddr: 0x2088C, symBinAddr: 0x100023C00, symSize: 0x24 }
  - { offset: 0x23993, size: 0x8, addend: 0x0, symName: __ZN4aabbC2ERKS_S1_, symObjAddr: 0x208B0, symBinAddr: 0x100023C24, symSize: 0xAC }
  - { offset: 0x239D9, size: 0x8, addend: 0x0, symName: __ZN8intervalC1ERKS_S1_, symObjAddr: 0x2095C, symBinAddr: 0x100023CD0, symSize: 0x3C }
  - { offset: 0x23A1F, size: 0x8, addend: 0x0, symName: __ZN8intervalC2ERKS_S1_, symObjAddr: 0x20998, symBinAddr: 0x100023D0C, symSize: 0xC0 }
  - { offset: 0x23A65, size: 0x8, addend: 0x0, symName: __ZNK4vec314length_squaredEv, symObjAddr: 0x20A58, symBinAddr: 0x100023DCC, symSize: 0x38 }
  - { offset: 0x23A8B, size: 0x8, addend: 0x0, symName: __ZNSt3__110shared_ptrI8materialEC2B8ne180100Ev, symObjAddr: 0x20A90, symBinAddr: 0x100023E04, symSize: 0x1C }
  - { offset: 0x23AB5, size: 0x8, addend: 0x0, symName: __ZN13hittable_listC2ENSt3__110shared_ptrI8hittableEE, symObjAddr: 0x20AAC, symBinAddr: 0x100023E20, symSize: 0xD0 }
  - { offset: 0x23AEE, size: 0x8, addend: 0x0, symName: __ZN8hittableaSERKS_, symObjAddr: 0x20B7C, symBinAddr: 0x100023EF0, symSize: 0x18 }
  - { offset: 0x23B1F, size: 0x8, addend: 0x0, symName: __ZNSt3__16vectorINS_10shared_ptrI8hittableEENS_9allocatorIS3_EEEaSB8ne180100EOS6_, symObjAddr: 0x20B94, symBinAddr: 0x100023F08, symSize: 0x34 }
  - { offset: 0x23B56, size: 0x8, addend: 0x0, symName: __ZNSt3__16vectorINS_10shared_ptrI8hittableEENS_9allocatorIS3_EEE13__move_assignERS6_NS_17integral_constantIbLb1EEE, symObjAddr: 0x20BC8, symBinAddr: 0x100023F3C, symSize: 0x94 }
  - { offset: 0x23B99, size: 0x8, addend: 0x0, symName: __ZNSt3__16vectorINS_10shared_ptrI8hittableEENS_9allocatorIS3_EEE13__vdeallocateEv, symObjAddr: 0x20C5C, symBinAddr: 0x100023FD0, symSize: 0x94 }
  - { offset: 0x23BC1, size: 0x8, addend: 0x0, symName: __ZNSt3__16vectorINS_10shared_ptrI8hittableEENS_9allocatorIS3_EEE19__move_assign_allocB8ne180100ERS6_, symObjAddr: 0x20CF0, symBinAddr: 0x100024064, symSize: 0x2C }
  - { offset: 0x23BF6, size: 0x8, addend: 0x0, symName: __ZNSt3__16vectorINS_10shared_ptrI8hittableEENS_9allocatorIS3_EEE5clearB8ne180100Ev, symObjAddr: 0x20D1C, symBinAddr: 0x100024090, symSize: 0x44 }
  - { offset: 0x23C2B, size: 0x8, addend: 0x0, symName: __ZNKSt3__16vectorINS_10shared_ptrI8hittableEENS_9allocatorIS3_EEE17__annotate_shrinkB8ne180100Em, symObjAddr: 0x20D60, symBinAddr: 0x1000240D4, symSize: 0x14 }
  - { offset: 0x23C60, size: 0x8, addend: 0x0, symName: __ZNSt3__16vectorINS_10shared_ptrI8hittableEENS_9allocatorIS3_EEE19__move_assign_allocB8ne180100ERS6_NS_17integral_constantIbLb1EEE, symObjAddr: 0x20D74, symBinAddr: 0x1000240E8, symSize: 0x38 }
  - { offset: 0x23CA1, size: 0x8, addend: 0x0, symName: __ZN13hittable_listD2Ev, symObjAddr: 0x20DAC, symBinAddr: 0x100024120, symSize: 0x48 }
  - { offset: 0x23CCD, size: 0x8, addend: 0x0, symName: __ZN6cameraC2Ev, symObjAddr: 0x20DF4, symBinAddr: 0x100024168, symSize: 0x118 }
  - { offset: 0x23CF9, size: 0x8, addend: 0x0, symName: __ZN6camera10initializeEv, symObjAddr: 0x20F0C, symBinAddr: 0x100024280, symSize: 0x478 }
  - { offset: 0x23D93, size: 0x8, addend: 0x0, symName: __ZNSt3__113basic_ostreamIcNS_11char_traitsIcEEElsB8ne180100EPFRS3_S4_E, symObjAddr: 0x213CC, symBinAddr: 0x100024740, symSize: 0x2C }
  - { offset: 0x23DC7, size: 0x8, addend: 0x0, symName: __ZNK6camera7get_rayEii, symObjAddr: 0x21420, symBinAddr: 0x100024794, symSize: 0x190 }
  - { offset: 0x23E53, size: 0x8, addend: 0x0, symName: __ZNK6camera9ray_colorERK3rayiRK8hittable, symObjAddr: 0x215B0, symBinAddr: 0x100024924, symSize: 0x348 }
  - { offset: 0x23EF5, size: 0x8, addend: 0x0, symName: __ZN4vec3pLERKS_, symObjAddr: 0x218F8, symBinAddr: 0x100024C6C, symSize: 0x54 }
  - { offset: 0x23F28, size: 0x8, addend: 0x0, symName: __ZmldRK4vec3, symObjAddr: 0x2194C, symBinAddr: 0x100024CC0, symSize: 0x64 }
  - { offset: 0x23F62, size: 0x8, addend: 0x0, symName: __Z18degrees_to_radiansd, symObjAddr: 0x219B0, symBinAddr: 0x100024D24, symSize: 0x2C }
  - { offset: 0x23F8E, size: 0x8, addend: 0x0, symName: __Z11unit_vectorRK4vec3, symObjAddr: 0x219DC, symBinAddr: 0x100024D50, symSize: 0x4C }
  - { offset: 0x23FBA, size: 0x8, addend: 0x0, symName: __Z5crossRK4vec3S1_, symObjAddr: 0x21A28, symBinAddr: 0x100024D9C, symSize: 0xAC }
  - { offset: 0x23FF5, size: 0x8, addend: 0x0, symName: __ZNK4vec3ngEv, symObjAddr: 0x21AD4, symBinAddr: 0x100024E48, symSize: 0x4C }
  - { offset: 0x2401A, size: 0x8, addend: 0x0, symName: __ZdvRK4vec3d, symObjAddr: 0x21B20, symBinAddr: 0x100024E94, symSize: 0x4C }
  - { offset: 0x24054, size: 0x8, addend: 0x0, symName: __ZmlRK4vec3d, symObjAddr: 0x21B6C, symBinAddr: 0x100024EE0, symSize: 0x44 }
  - { offset: 0x2408F, size: 0x8, addend: 0x0, symName: __ZNSt3__111char_traitsIcE6lengthB8ne180100EPKc, symObjAddr: 0x21D9C, symBinAddr: 0x100025110, symSize: 0x34 }
  - { offset: 0x240D0, size: 0x8, addend: 0x0, symName: __ZNKSt3__113basic_ostreamIcNS_11char_traitsIcEEE6sentrycvbB8ne180100Ev, symObjAddr: 0x21DD0, symBinAddr: 0x100025144, symSize: 0x1C }
  - { offset: 0x240F6, size: 0x8, addend: 0x0, symName: __ZNSt3__119ostreambuf_iteratorIcNS_11char_traitsIcEEEC1B8ne180100ERNS_13basic_ostreamIcS2_EE, symObjAddr: 0x2202C, symBinAddr: 0x1000253A0, symSize: 0x34 }
  - { offset: 0x2412E, size: 0x8, addend: 0x0, symName: __ZNKSt3__18ios_base5flagsB8ne180100Ev, symObjAddr: 0x22060, symBinAddr: 0x1000253D4, symSize: 0x18 }
  - { offset: 0x24156, size: 0x8, addend: 0x0, symName: __ZNKSt3__19basic_iosIcNS_11char_traitsIcEEE4fillB8ne180100Ev, symObjAddr: 0x22078, symBinAddr: 0x1000253EC, symSize: 0x64 }
  - { offset: 0x2417E, size: 0x8, addend: 0x0, symName: __ZNKSt3__119ostreambuf_iteratorIcNS_11char_traitsIcEEE6failedB8ne180100Ev, symObjAddr: 0x220DC, symBinAddr: 0x100025450, symSize: 0x24 }
  - { offset: 0x241A4, size: 0x8, addend: 0x0, symName: __ZNSt3__19basic_iosIcNS_11char_traitsIcEEE8setstateB8ne180100Ej, symObjAddr: 0x22100, symBinAddr: 0x100025474, symSize: 0x2C }
  - { offset: 0x241D9, size: 0x8, addend: 0x0, symName: __ZNKSt3__18ios_base5widthB8ne180100Ev, symObjAddr: 0x2212C, symBinAddr: 0x1000254A0, symSize: 0x18 }
  - { offset: 0x24201, size: 0x8, addend: 0x0, symName: __ZNSt3__115basic_streambufIcNS_11char_traitsIcEEE5sputnB8ne180100EPKcl, symObjAddr: 0x22144, symBinAddr: 0x1000254B8, symSize: 0x3C }
  - { offset: 0x24243, size: 0x8, addend: 0x0, symName: __ZNSt3__112basic_stringIcNS_11char_traitsIcEENS_9allocatorIcEEEC1B8ne180100Emc, symObjAddr: 0x22180, symBinAddr: 0x1000254F4, symSize: 0x3C }
  - { offset: 0x2428B, size: 0x8, addend: 0x0, symName: __ZNSt3__112basic_stringIcNS_11char_traitsIcEENS_9allocatorIcEEE4dataB8ne180100Ev, symObjAddr: 0x221BC, symBinAddr: 0x100025530, symSize: 0x28 }
  - { offset: 0x242B1, size: 0x8, addend: 0x0, symName: __ZNSt3__18ios_base5widthB8ne180100El, symObjAddr: 0x221E4, symBinAddr: 0x100025558, symSize: 0x2C }
  - { offset: 0x242F7, size: 0x8, addend: 0x0, symName: __ZNSt3__112basic_stringIcNS_11char_traitsIcEENS_9allocatorIcEEEC2B8ne180100Emc, symObjAddr: 0x22210, symBinAddr: 0x100025584, symSize: 0x4C }
  - { offset: 0x2433F, size: 0x8, addend: 0x0, symName: __ZNSt3__117__compressed_pairINS_12basic_stringIcNS_11char_traitsIcEENS_9allocatorIcEEE5__repES5_EC1B8ne180100INS_18__default_init_tagESA_EEOT_OT0_, symObjAddr: 0x2225C, symBinAddr: 0x1000255D0, symSize: 0x3C }
  - { offset: 0x24397, size: 0x8, addend: 0x0, symName: __ZNSt3__117__compressed_pairINS_12basic_stringIcNS_11char_traitsIcEENS_9allocatorIcEEE5__repES5_EC2B8ne180100INS_18__default_init_tagESA_EEOT_OT0_, symObjAddr: 0x22298, symBinAddr: 0x10002560C, symSize: 0x3C }
  - { offset: 0x243EF, size: 0x8, addend: 0x0, symName: __ZNSt3__122__compressed_pair_elemINS_12basic_stringIcNS_11char_traitsIcEENS_9allocatorIcEEE5__repELi0ELb0EEC2B8ne180100ENS_18__default_init_tagE, symObjAddr: 0x222D4, symBinAddr: 0x100025648, symSize: 0x14 }
  - { offset: 0x24424, size: 0x8, addend: 0x0, symName: __ZNSt3__122__compressed_pair_elemINS_9allocatorIcEELi1ELb1EEC2B8ne180100ENS_18__default_init_tagE, symObjAddr: 0x222E8, symBinAddr: 0x10002565C, symSize: 0x2C }
  - { offset: 0x24459, size: 0x8, addend: 0x0, symName: __ZNSt3__19allocatorIcEC2B8ne180100Ev, symObjAddr: 0x22314, symBinAddr: 0x100025688, symSize: 0x2C }
  - { offset: 0x24483, size: 0x8, addend: 0x0, symName: __ZNSt3__116__non_trivial_ifILb1ENS_9allocatorIcEEEC2B8ne180100Ev, symObjAddr: 0x22340, symBinAddr: 0x1000256B4, symSize: 0x14 }
  - { offset: 0x244AD, size: 0x8, addend: 0x0, symName: __ZNSt3__112basic_stringIcNS_11char_traitsIcEENS_9allocatorIcEEE13__get_pointerB8ne180100Ev, symObjAddr: 0x22368, symBinAddr: 0x1000256DC, symSize: 0x54 }
  - { offset: 0x244D3, size: 0x8, addend: 0x0, symName: __ZNKSt3__112basic_stringIcNS_11char_traitsIcEENS_9allocatorIcEEE9__is_longB8ne180100Ev, symObjAddr: 0x223BC, symBinAddr: 0x100025730, symSize: 0x38 }
  - { offset: 0x244F9, size: 0x8, addend: 0x0, symName: __ZNSt3__112basic_stringIcNS_11char_traitsIcEENS_9allocatorIcEEE18__get_long_pointerB8ne180100Ev, symObjAddr: 0x223F4, symBinAddr: 0x100025768, symSize: 0x28 }
  - { offset: 0x2451F, size: 0x8, addend: 0x0, symName: __ZNSt3__112basic_stringIcNS_11char_traitsIcEENS_9allocatorIcEEE19__get_short_pointerB8ne180100Ev, symObjAddr: 0x2241C, symBinAddr: 0x100025790, symSize: 0x28 }
  - { offset: 0x24545, size: 0x8, addend: 0x0, symName: __ZNKSt3__117__compressed_pairINS_12basic_stringIcNS_11char_traitsIcEENS_9allocatorIcEEE5__repES5_E5firstB8ne180100Ev, symObjAddr: 0x22444, symBinAddr: 0x1000257B8, symSize: 0x24 }
  - { offset: 0x2456B, size: 0x8, addend: 0x0, symName: __ZNKSt3__122__compressed_pair_elemINS_12basic_stringIcNS_11char_traitsIcEENS_9allocatorIcEEE5__repELi0ELb0EE5__getB8ne180100Ev, symObjAddr: 0x22468, symBinAddr: 0x1000257DC, symSize: 0x14 }
  - { offset: 0x24591, size: 0x8, addend: 0x0, symName: __ZNSt3__117__compressed_pairINS_12basic_stringIcNS_11char_traitsIcEENS_9allocatorIcEEE5__repES5_E5firstB8ne180100Ev, symObjAddr: 0x2247C, symBinAddr: 0x1000257F0, symSize: 0x24 }
  - { offset: 0x245B7, size: 0x8, addend: 0x0, symName: __ZNSt3__122__compressed_pair_elemINS_12basic_stringIcNS_11char_traitsIcEENS_9allocatorIcEEE5__repELi0ELb0EE5__getB8ne180100Ev, symObjAddr: 0x224A0, symBinAddr: 0x100025814, symSize: 0x14 }
  - { offset: 0x245DD, size: 0x8, addend: 0x0, symName: __ZNSt3__114pointer_traitsIPcE10pointer_toB8ne180100ERc, symObjAddr: 0x224B4, symBinAddr: 0x100025828, symSize: 0x14 }
  - { offset: 0x24600, size: 0x8, addend: 0x0, symName: __ZNSt3__119ostreambuf_iteratorIcNS_11char_traitsIcEEEC2B8ne180100ERNS_13basic_ostreamIcS2_EE, symObjAddr: 0x224C8, symBinAddr: 0x10002583C, symSize: 0x54 }
  - { offset: 0x24638, size: 0x8, addend: 0x0, symName: __ZNKSt3__19basic_iosIcNS_11char_traitsIcEEE5rdbufB8ne180100Ev, symObjAddr: 0x2251C, symBinAddr: 0x100025890, symSize: 0x24 }
  - { offset: 0x24660, size: 0x8, addend: 0x0, symName: __ZNKSt3__18ios_base5rdbufB8ne180100Ev, symObjAddr: 0x22540, symBinAddr: 0x1000258B4, symSize: 0x18 }
  - { offset: 0x24686, size: 0x8, addend: 0x0, symName: __ZNSt3__111char_traitsIcE11eq_int_typeB8ne180100Eii, symObjAddr: 0x22558, symBinAddr: 0x1000258CC, symSize: 0x28 }
  - { offset: 0x246B9, size: 0x8, addend: 0x0, symName: __ZNSt3__111char_traitsIcE3eofB8ne180100Ev, symObjAddr: 0x22580, symBinAddr: 0x1000258F4, symSize: 0x8 }
  - { offset: 0x246CD, size: 0x8, addend: 0x0, symName: __ZNKSt3__19basic_iosIcNS_11char_traitsIcEEE5widenB8ne180100Ec, symObjAddr: 0x22588, symBinAddr: 0x1000258FC, symSize: 0x84 }
  - { offset: 0x24746, size: 0x8, addend: 0x0, symName: __ZNKSt3__15ctypeIcE5widenB8ne180100Ec, symObjAddr: 0x22638, symBinAddr: 0x1000259AC, symSize: 0x38 }
  - { offset: 0x2477B, size: 0x8, addend: 0x0, symName: __ZNSt3__18ios_base8setstateB8ne180100Ej, symObjAddr: 0x22670, symBinAddr: 0x1000259E4, symSize: 0x34 }
  - { offset: 0x247B2, size: 0x8, addend: 0x0, symName: __ZNK6camera13sample_squareEv, symObjAddr: 0x226C8, symBinAddr: 0x100025A3C, symSize: 0x5C }
  - { offset: 0x247D8, size: 0x8, addend: 0x0, symName: __ZNK6camera19defocus_disk_sampleEv, symObjAddr: 0x22724, symBinAddr: 0x100025A98, symSize: 0xD0 }
  - { offset: 0x2480C, size: 0x8, addend: 0x0, symName: __ZN3rayC1ERK4vec3S2_d, symObjAddr: 0x227F4, symBinAddr: 0x100025B68, symSize: 0x44 }
  - { offset: 0x2485F, size: 0x8, addend: 0x0, symName: __Z19random_in_unit_diskv, symObjAddr: 0x22838, symBinAddr: 0x100025BAC, symSize: 0x88 }
  - { offset: 0x2489A, size: 0x8, addend: 0x0, symName: __ZN4vec3ixEi, symObjAddr: 0x228C0, symBinAddr: 0x100025C34, symSize: 0x20 }
  - { offset: 0x248CE, size: 0x8, addend: 0x0, symName: __ZN3rayC2ERK4vec3S2_d, symObjAddr: 0x228E0, symBinAddr: 0x100025C54, symSize: 0x50 }
  - { offset: 0x24922, size: 0x8, addend: 0x0, symName: __ZN3rayC1Ev, symObjAddr: 0x22930, symBinAddr: 0x100025CA4, symSize: 0x2C }
  - { offset: 0x2494C, size: 0x8, addend: 0x0, symName: __ZNKSt3__110shared_ptrI8materialEptB8ne180100Ev, symObjAddr: 0x2295C, symBinAddr: 0x100025CD0, symSize: 0x18 }
  - { offset: 0x24972, size: 0x8, addend: 0x0, symName: __ZNK3ray9directionEv, symObjAddr: 0x22974, symBinAddr: 0x100025CE8, symSize: 0x18 }
  - { offset: 0x24998, size: 0x8, addend: 0x0, symName: __ZN3rayC2Ev, symObjAddr: 0x2298C, symBinAddr: 0x100025D00, symSize: 0x38 }
  - { offset: 0x249C2, size: 0x8, addend: 0x0, symName: __ZNSt3__110shared_ptrI8hittableED2B8ne180100Ev, symObjAddr: 0x229C4, symBinAddr: 0x100025D38, symSize: 0x54 }
  - { offset: 0x249EC, size: 0x8, addend: 0x0, symName: __ZNSt3__119__shared_weak_count16__release_sharedB8ne180100Ev, symObjAddr: 0x22A18, symBinAddr: 0x100025D8C, symSize: 0x3C }
  - { offset: 0x24A12, size: 0x8, addend: 0x0, symName: __ZNSt3__114__shared_count16__release_sharedB8ne180100Ev, symObjAddr: 0x22A54, symBinAddr: 0x100025DC8, symSize: 0x7C }
  - { offset: 0x24A38, size: 0x8, addend: 0x0, symName: __ZNSt3__110shared_ptrI8materialED2B8ne180100Ev, symObjAddr: 0x22B00, symBinAddr: 0x100025E74, symSize: 0x54 }
  - { offset: 0x24A62, size: 0x8, addend: 0x0, symName: __ZNSt3__110shared_ptrI8bvh_nodeED2B8ne180100Ev, symObjAddr: 0x22B54, symBinAddr: 0x100025EC8, symSize: 0x54 }
  - { offset: 0x24A8C, size: 0x8, addend: 0x0, symName: __ZNSt3__19allocatorI15checker_textureEC1B8ne180100Ev, symObjAddr: 0x22C50, symBinAddr: 0x100025FC4, symSize: 0x2C }
  - { offset: 0x24B02, size: 0x8, addend: 0x0, symName: __ZNSt3__118__allocation_guardINS_9allocatorINS_20__shared_ptr_emplaceI15checker_textureNS1_IS3_EEEEEEEC1B8ne180100IS4_EET_m, symObjAddr: 0x22C7C, symBinAddr: 0x100025FF0, symSize: 0x34 }
  - { offset: 0x24B51, size: 0x8, addend: 0x0, symName: __ZNKSt3__118__allocation_guardINS_9allocatorINS_20__shared_ptr_emplaceI15checker_textureNS1_IS3_EEEEEEE5__getB8ne180100Ev, symObjAddr: 0x22CB0, symBinAddr: 0x100026024, symSize: 0x18 }
  - { offset: 0x24B83, size: 0x8, addend: 0x0, symName: __ZNSt3__120__shared_ptr_emplaceI15checker_textureNS_9allocatorIS1_EEEC1B8ne180100IJd4vec3S6_ES3_Li0EEES3_DpOT_, symObjAddr: 0x22CC8, symBinAddr: 0x10002603C, symSize: 0x44 }
  - { offset: 0x24C0D, size: 0x8, addend: 0x0, symName: __ZNSt3__118__allocation_guardINS_9allocatorINS_20__shared_ptr_emplaceI15checker_textureNS1_IS3_EEEEEEE13__release_ptrB8ne180100Ev, symObjAddr: 0x22D0C, symBinAddr: 0x100026080, symSize: 0x24 }
  - { offset: 0x24C41, size: 0x8, addend: 0x0, symName: __ZNSt3__110shared_ptrI15checker_textureE27__create_with_control_blockB8ne180100IS1_NS_20__shared_ptr_emplaceIS1_NS_9allocatorIS1_EEEEEES2_PT_PT0_, symObjAddr: 0x22D30, symBinAddr: 0x1000260A4, symSize: 0xA4 }
  - { offset: 0x24C96, size: 0x8, addend: 0x0, symName: __ZNSt3__120__shared_ptr_emplaceI15checker_textureNS_9allocatorIS1_EEE10__get_elemB8ne180100Ev, symObjAddr: 0x22DD4, symBinAddr: 0x100026148, symSize: 0x28 }
  - { offset: 0x24CBC, size: 0x8, addend: 0x0, symName: __ZNSt3__118__allocation_guardINS_9allocatorINS_20__shared_ptr_emplaceI15checker_textureNS1_IS3_EEEEEEED1B8ne180100Ev, symObjAddr: 0x22DFC, symBinAddr: 0x100026170, symSize: 0x2C }
  - { offset: 0x24CE6, size: 0x8, addend: 0x0, symName: __ZNSt3__118__allocation_guardINS_9allocatorINS_20__shared_ptr_emplaceI15checker_textureNS1_IS3_EEEEEEEC2B8ne180100IS4_EET_m, symObjAddr: 0x22E28, symBinAddr: 0x10002619C, symSize: 0x50 }
  - { offset: 0x24D35, size: 0x8, addend: 0x0, symName: __ZNSt3__19allocatorINS_20__shared_ptr_emplaceI15checker_textureNS0_IS2_EEEEEC1B8ne180100IS2_EERKNS0_IT_EE, symObjAddr: 0x22E78, symBinAddr: 0x1000261EC, symSize: 0x34 }
  - { offset: 0x24D73, size: 0x8, addend: 0x0, symName: __ZNSt3__116allocator_traitsINS_9allocatorINS_20__shared_ptr_emplaceI15checker_textureNS1_IS3_EEEEEEE8allocateB8ne180100ERS6_m, symObjAddr: 0x22EAC, symBinAddr: 0x100026220, symSize: 0x2C }
  - { offset: 0x24DA6, size: 0x8, addend: 0x0, symName: __ZNSt3__19allocatorINS_20__shared_ptr_emplaceI15checker_textureNS0_IS2_EEEEEC2B8ne180100IS2_EERKNS0_IT_EE, symObjAddr: 0x22ED8, symBinAddr: 0x10002624C, symSize: 0x30 }
  - { offset: 0x24DE4, size: 0x8, addend: 0x0, symName: __ZNSt3__116__non_trivial_ifILb1ENS_9allocatorINS_20__shared_ptr_emplaceI15checker_textureNS1_IS3_EEEEEEEC2B8ne180100Ev, symObjAddr: 0x22F08, symBinAddr: 0x10002627C, symSize: 0x14 }
  - { offset: 0x24E0E, size: 0x8, addend: 0x0, symName: __ZNSt3__19allocatorINS_20__shared_ptr_emplaceI15checker_textureNS0_IS2_EEEEE8allocateB8ne180100Em, symObjAddr: 0x22F1C, symBinAddr: 0x100026290, symSize: 0x5C }
  - { offset: 0x24E4C, size: 0x8, addend: 0x0, symName: __ZNSt3__116allocator_traitsINS_9allocatorINS_20__shared_ptr_emplaceI15checker_textureNS1_IS3_EEEEEEE8max_sizeB8ne180100IS6_vEEmRKS6_, symObjAddr: 0x22F78, symBinAddr: 0x1000262EC, symSize: 0x24 }
  - { offset: 0x24E7A, size: 0x8, addend: 0x0, symName: __ZNKSt3__19allocatorINS_20__shared_ptr_emplaceI15checker_textureNS0_IS2_EEEEE8max_sizeB8ne180100Ev, symObjAddr: 0x22F9C, symBinAddr: 0x100026310, symSize: 0x20 }
  - { offset: 0x24EA0, size: 0x8, addend: 0x0, symName: __ZNSt3__120__shared_ptr_emplaceI15checker_textureNS_9allocatorIS1_EEEC2B8ne180100IJd4vec3S6_ES3_Li0EEES3_DpOT_, symObjAddr: 0x22FBC, symBinAddr: 0x100026330, symSize: 0xCC }
  - { offset: 0x24F4B, size: 0x8, addend: 0x0, symName: __ZNSt3__119__shared_weak_countC2B8ne180100El, symObjAddr: 0x23088, symBinAddr: 0x1000263FC, symSize: 0x4C }
  - { offset: 0x24F83, size: 0x8, addend: 0x0, symName: __ZNSt3__120__shared_ptr_emplaceI15checker_textureNS_9allocatorIS1_EEE8_StorageC1B8ne180100EOS3_, symObjAddr: 0x230D4, symBinAddr: 0x100026448, symSize: 0x34 }
  - { offset: 0x24FBC, size: 0x8, addend: 0x0, symName: __ZNSt3__120__shared_ptr_emplaceI15checker_textureNS_9allocatorIS1_EEE11__get_allocB8ne180100Ev, symObjAddr: 0x23108, symBinAddr: 0x10002647C, symSize: 0x28 }
  - { offset: 0x24FE7, size: 0x8, addend: 0x0, symName: __ZNSt3__116allocator_traitsINS_9allocatorI15checker_textureEEE9constructB8ne180100IS2_Jd4vec3S6_EvEEvRS3_PT_DpOT0_, symObjAddr: 0x23130, symBinAddr: 0x1000264A4, symSize: 0x44 }
  - { offset: 0x25066, size: 0x8, addend: 0x0, symName: __ZNSt3__120__shared_ptr_emplaceI15checker_textureNS_9allocatorIS1_EEE8_StorageD1B8ne180100Ev, symObjAddr: 0x23174, symBinAddr: 0x1000264E8, symSize: 0x2C }
  - { offset: 0x25090, size: 0x8, addend: 0x0, symName: __ZNSt3__120__shared_ptr_emplaceI15checker_textureNS_9allocatorIS1_EEED1Ev, symObjAddr: 0x231A0, symBinAddr: 0x100026514, symSize: 0x2C }
  - { offset: 0x250BC, size: 0x8, addend: 0x0, symName: __ZNSt3__120__shared_ptr_emplaceI15checker_textureNS_9allocatorIS1_EEED0Ev, symObjAddr: 0x231CC, symBinAddr: 0x100026540, symSize: 0x30 }
  - { offset: 0x250E8, size: 0x8, addend: 0x0, symName: __ZNSt3__120__shared_ptr_emplaceI15checker_textureNS_9allocatorIS1_EEE16__on_zero_sharedEv, symObjAddr: 0x231FC, symBinAddr: 0x100026570, symSize: 0x24 }
  - { offset: 0x2510E, size: 0x8, addend: 0x0, symName: __ZNSt3__120__shared_ptr_emplaceI15checker_textureNS_9allocatorIS1_EEE21__on_zero_shared_weakEv, symObjAddr: 0x23220, symBinAddr: 0x100026594, symSize: 0x5C }
  - { offset: 0x2514F, size: 0x8, addend: 0x0, symName: __ZNSt3__114__shared_countC2B8ne180100El, symObjAddr: 0x2327C, symBinAddr: 0x1000265F0, symSize: 0x30 }
  - { offset: 0x25187, size: 0x8, addend: 0x0, symName: __ZNSt3__120__shared_ptr_emplaceI15checker_textureNS_9allocatorIS1_EEE8_StorageC2B8ne180100EOS3_, symObjAddr: 0x232AC, symBinAddr: 0x100026620, symSize: 0x30 }
  - { offset: 0x251C0, size: 0x8, addend: 0x0, symName: __ZNSt3__120__shared_ptr_emplaceI15checker_textureNS_9allocatorIS1_EEE8_Storage11__get_allocB8ne180100Ev, symObjAddr: 0x232DC, symBinAddr: 0x100026650, symSize: 0x3C }
  - { offset: 0x25213, size: 0x8, addend: 0x0, symName: __ZNSt3__117__compressed_pairINS_9allocatorI15checker_textureEES2_E16__get_first_baseB8ne180100EPS4_, symObjAddr: 0x23318, symBinAddr: 0x10002668C, symSize: 0x14 }
  - { offset: 0x25236, size: 0x8, addend: 0x0, symName: __ZNSt3__19allocatorI15checker_textureE9constructB8ne180100IS1_Jd4vec3S4_EEEvPT_DpOT0_, symObjAddr: 0x2332C, symBinAddr: 0x1000266A0, symSize: 0x44 }
  - { offset: 0x252B2, size: 0x8, addend: 0x0, symName: __ZN15checker_textureC1EdRK4vec3S2_, symObjAddr: 0x23370, symBinAddr: 0x1000266E4, symSize: 0xFC }
  - { offset: 0x2532A, size: 0x8, addend: 0x0, symName: __ZNSt3__110shared_ptrI7textureEC1B8ne180100I11solid_colorvEEONS0_IT_EE, symObjAddr: 0x234AC, symBinAddr: 0x100026820, symSize: 0x34 }
  - { offset: 0x2536D, size: 0x8, addend: 0x0, symName: __ZN15checker_textureC1EdNSt3__110shared_ptrI7textureEES3_, symObjAddr: 0x234E0, symBinAddr: 0x100026854, symSize: 0x44 }
  - { offset: 0x253C3, size: 0x8, addend: 0x0, symName: __ZNSt3__110shared_ptrI7textureED1B8ne180100Ev, symObjAddr: 0x23524, symBinAddr: 0x100026898, symSize: 0x2C }
  - { offset: 0x253ED, size: 0x8, addend: 0x0, symName: __ZNSt3__110shared_ptrI11solid_colorED1B8ne180100Ev, symObjAddr: 0x23550, symBinAddr: 0x1000268C4, symSize: 0x2C }
  - { offset: 0x25417, size: 0x8, addend: 0x0, symName: __ZNSt3__19allocatorI11solid_colorEC1B8ne180100Ev, symObjAddr: 0x23614, symBinAddr: 0x100026988, symSize: 0x2C }
  - { offset: 0x2548D, size: 0x8, addend: 0x0, symName: __ZNSt3__118__allocation_guardINS_9allocatorINS_20__shared_ptr_emplaceI11solid_colorNS1_IS3_EEEEEEEC1B8ne180100IS4_EET_m, symObjAddr: 0x23640, symBinAddr: 0x1000269B4, symSize: 0x34 }
  - { offset: 0x254DC, size: 0x8, addend: 0x0, symName: __ZNKSt3__118__allocation_guardINS_9allocatorINS_20__shared_ptr_emplaceI11solid_colorNS1_IS3_EEEEEEE5__getB8ne180100Ev, symObjAddr: 0x23674, symBinAddr: 0x1000269E8, symSize: 0x18 }
  - { offset: 0x25502, size: 0x8, addend: 0x0, symName: __ZNSt3__120__shared_ptr_emplaceI11solid_colorNS_9allocatorIS1_EEEC1B8ne180100IJRK4vec3ES3_Li0EEES3_DpOT_, symObjAddr: 0x2368C, symBinAddr: 0x100026A00, symSize: 0x34 }
  - { offset: 0x25564, size: 0x8, addend: 0x0, symName: __ZNSt3__118__allocation_guardINS_9allocatorINS_20__shared_ptr_emplaceI11solid_colorNS1_IS3_EEEEEEE13__release_ptrB8ne180100Ev, symObjAddr: 0x236C0, symBinAddr: 0x100026A34, symSize: 0x24 }
  - { offset: 0x25598, size: 0x8, addend: 0x0, symName: __ZNSt3__110shared_ptrI11solid_colorE27__create_with_control_blockB8ne180100IS1_NS_20__shared_ptr_emplaceIS1_NS_9allocatorIS1_EEEEEES2_PT_PT0_, symObjAddr: 0x236E4, symBinAddr: 0x100026A58, symSize: 0xA4 }
  - { offset: 0x255ED, size: 0x8, addend: 0x0, symName: __ZNSt3__120__shared_ptr_emplaceI11solid_colorNS_9allocatorIS1_EEE10__get_elemB8ne180100Ev, symObjAddr: 0x23788, symBinAddr: 0x100026AFC, symSize: 0x28 }
  - { offset: 0x25613, size: 0x8, addend: 0x0, symName: __ZNSt3__118__allocation_guardINS_9allocatorINS_20__shared_ptr_emplaceI11solid_colorNS1_IS3_EEEEEEED1B8ne180100Ev, symObjAddr: 0x237B0, symBinAddr: 0x100026B24, symSize: 0x2C }
  - { offset: 0x2563D, size: 0x8, addend: 0x0, symName: __ZNSt3__118__allocation_guardINS_9allocatorINS_20__shared_ptr_emplaceI11solid_colorNS1_IS3_EEEEEEEC2B8ne180100IS4_EET_m, symObjAddr: 0x237DC, symBinAddr: 0x100026B50, symSize: 0x50 }
  - { offset: 0x2568C, size: 0x8, addend: 0x0, symName: __ZNSt3__19allocatorINS_20__shared_ptr_emplaceI11solid_colorNS0_IS2_EEEEEC1B8ne180100IS2_EERKNS0_IT_EE, symObjAddr: 0x2382C, symBinAddr: 0x100026BA0, symSize: 0x34 }
  - { offset: 0x256CA, size: 0x8, addend: 0x0, symName: __ZNSt3__116allocator_traitsINS_9allocatorINS_20__shared_ptr_emplaceI11solid_colorNS1_IS3_EEEEEEE8allocateB8ne180100ERS6_m, symObjAddr: 0x23860, symBinAddr: 0x100026BD4, symSize: 0x2C }
  - { offset: 0x256FD, size: 0x8, addend: 0x0, symName: __ZNSt3__19allocatorINS_20__shared_ptr_emplaceI11solid_colorNS0_IS2_EEEEEC2B8ne180100IS2_EERKNS0_IT_EE, symObjAddr: 0x2388C, symBinAddr: 0x100026C00, symSize: 0x30 }
  - { offset: 0x2573B, size: 0x8, addend: 0x0, symName: __ZNSt3__116__non_trivial_ifILb1ENS_9allocatorINS_20__shared_ptr_emplaceI11solid_colorNS1_IS3_EEEEEEEC2B8ne180100Ev, symObjAddr: 0x238BC, symBinAddr: 0x100026C30, symSize: 0x14 }
  - { offset: 0x25765, size: 0x8, addend: 0x0, symName: __ZNSt3__19allocatorINS_20__shared_ptr_emplaceI11solid_colorNS0_IS2_EEEEE8allocateB8ne180100Em, symObjAddr: 0x238D0, symBinAddr: 0x100026C44, symSize: 0x5C }
  - { offset: 0x257A3, size: 0x8, addend: 0x0, symName: __ZNSt3__116allocator_traitsINS_9allocatorINS_20__shared_ptr_emplaceI11solid_colorNS1_IS3_EEEEEEE8max_sizeB8ne180100IS6_vEEmRKS6_, symObjAddr: 0x2392C, symBinAddr: 0x100026CA0, symSize: 0x24 }
  - { offset: 0x257D1, size: 0x8, addend: 0x0, symName: __ZNKSt3__19allocatorINS_20__shared_ptr_emplaceI11solid_colorNS0_IS2_EEEEE8max_sizeB8ne180100Ev, symObjAddr: 0x23950, symBinAddr: 0x100026CC4, symSize: 0x20 }
  - { offset: 0x257F7, size: 0x8, addend: 0x0, symName: __ZNSt3__120__shared_ptr_emplaceI11solid_colorNS_9allocatorIS1_EEEC2B8ne180100IJRK4vec3ES3_Li0EEES3_DpOT_, symObjAddr: 0x23970, symBinAddr: 0x100026CE4, symSize: 0xBC }
  - { offset: 0x2587A, size: 0x8, addend: 0x0, symName: __ZNSt3__120__shared_ptr_emplaceI11solid_colorNS_9allocatorIS1_EEE8_StorageC1B8ne180100EOS3_, symObjAddr: 0x23A2C, symBinAddr: 0x100026DA0, symSize: 0x34 }
  - { offset: 0x258B3, size: 0x8, addend: 0x0, symName: __ZNSt3__120__shared_ptr_emplaceI11solid_colorNS_9allocatorIS1_EEE11__get_allocB8ne180100Ev, symObjAddr: 0x23A60, symBinAddr: 0x100026DD4, symSize: 0x28 }
  - { offset: 0x258DE, size: 0x8, addend: 0x0, symName: __ZNSt3__116allocator_traitsINS_9allocatorI11solid_colorEEE9constructB8ne180100IS2_JRK4vec3EvEEvRS3_PT_DpOT0_, symObjAddr: 0x23A88, symBinAddr: 0x100026DFC, symSize: 0x34 }
  - { offset: 0x25935, size: 0x8, addend: 0x0, symName: __ZNSt3__120__shared_ptr_emplaceI11solid_colorNS_9allocatorIS1_EEE8_StorageD1B8ne180100Ev, symObjAddr: 0x23ABC, symBinAddr: 0x100026E30, symSize: 0x2C }
  - { offset: 0x2595F, size: 0x8, addend: 0x0, symName: __ZNSt3__120__shared_ptr_emplaceI11solid_colorNS_9allocatorIS1_EEED1Ev, symObjAddr: 0x23AE8, symBinAddr: 0x100026E5C, symSize: 0x2C }
  - { offset: 0x2598B, size: 0x8, addend: 0x0, symName: __ZNSt3__120__shared_ptr_emplaceI11solid_colorNS_9allocatorIS1_EEED0Ev, symObjAddr: 0x23B14, symBinAddr: 0x100026E88, symSize: 0x30 }
  - { offset: 0x259B7, size: 0x8, addend: 0x0, symName: __ZNSt3__120__shared_ptr_emplaceI11solid_colorNS_9allocatorIS1_EEE16__on_zero_sharedEv, symObjAddr: 0x23B44, symBinAddr: 0x100026EB8, symSize: 0x24 }
  - { offset: 0x259DD, size: 0x8, addend: 0x0, symName: __ZNSt3__120__shared_ptr_emplaceI11solid_colorNS_9allocatorIS1_EEE21__on_zero_shared_weakEv, symObjAddr: 0x23B68, symBinAddr: 0x100026EDC, symSize: 0x5C }
  - { offset: 0x25A1E, size: 0x8, addend: 0x0, symName: __ZNSt3__120__shared_ptr_emplaceI11solid_colorNS_9allocatorIS1_EEE8_StorageC2B8ne180100EOS3_, symObjAddr: 0x23BC4, symBinAddr: 0x100026F38, symSize: 0x30 }
  - { offset: 0x25A57, size: 0x8, addend: 0x0, symName: __ZNSt3__120__shared_ptr_emplaceI11solid_colorNS_9allocatorIS1_EEE8_Storage11__get_allocB8ne180100Ev, symObjAddr: 0x23BF4, symBinAddr: 0x100026F68, symSize: 0x3C }
  - { offset: 0x25AAA, size: 0x8, addend: 0x0, symName: __ZNSt3__117__compressed_pairINS_9allocatorI11solid_colorEES2_E16__get_first_baseB8ne180100EPS4_, symObjAddr: 0x23C30, symBinAddr: 0x100026FA4, symSize: 0x14 }
  - { offset: 0x25ACD, size: 0x8, addend: 0x0, symName: __ZNSt3__19allocatorI11solid_colorE9constructB8ne180100IS1_JRK4vec3EEEvPT_DpOT0_, symObjAddr: 0x23C44, symBinAddr: 0x100026FB8, symSize: 0x30 }
  - { offset: 0x25B23, size: 0x8, addend: 0x0, symName: __ZN11solid_colorC1ERK4vec3, symObjAddr: 0x23C74, symBinAddr: 0x100026FE8, symSize: 0x34 }
  - { offset: 0x25B5B, size: 0x8, addend: 0x0, symName: __ZN11solid_colorC2ERK4vec3, symObjAddr: 0x23CA8, symBinAddr: 0x10002701C, symSize: 0x54 }
  - { offset: 0x25B93, size: 0x8, addend: 0x0, symName: __ZN7textureC2Ev, symObjAddr: 0x23CFC, symBinAddr: 0x100027070, symSize: 0x24 }
  - { offset: 0x25BBF, size: 0x8, addend: 0x0, symName: __ZN11solid_colorD1Ev, symObjAddr: 0x23D20, symBinAddr: 0x100027094, symSize: 0x2C }
  - { offset: 0x25BEB, size: 0x8, addend: 0x0, symName: __ZN11solid_colorD0Ev, symObjAddr: 0x23D4C, symBinAddr: 0x1000270C0, symSize: 0x30 }
  - { offset: 0x25C17, size: 0x8, addend: 0x0, symName: __ZNK11solid_color5valueEddRK4vec3, symObjAddr: 0x23D7C, symBinAddr: 0x1000270F0, symSize: 0x3C }
  - { offset: 0x25C67, size: 0x8, addend: 0x0, symName: __ZN7textureD1Ev, symObjAddr: 0x23DB8, symBinAddr: 0x10002712C, symSize: 0x14 }
  - { offset: 0x25C91, size: 0x8, addend: 0x0, symName: __ZN7textureD0Ev, symObjAddr: 0x23DCC, symBinAddr: 0x100027140, symSize: 0xC }
  - { offset: 0x25CBB, size: 0x8, addend: 0x0, symName: __ZN11solid_colorD2Ev, symObjAddr: 0x23DD8, symBinAddr: 0x10002714C, symSize: 0x2C }
  - { offset: 0x25CE7, size: 0x8, addend: 0x0, symName: __ZN7textureD2Ev, symObjAddr: 0x23E04, symBinAddr: 0x100027178, symSize: 0x14 }
  - { offset: 0x25D11, size: 0x8, addend: 0x0, symName: __ZNSt3__120__shared_ptr_emplaceI11solid_colorNS_9allocatorIS1_EEE8_StorageD2B8ne180100Ev, symObjAddr: 0x23E18, symBinAddr: 0x10002718C, symSize: 0x2C }
  - { offset: 0x25D3B, size: 0x8, addend: 0x0, symName: __ZNSt3__120__shared_ptr_emplaceI11solid_colorNS_9allocatorIS1_EEED2Ev, symObjAddr: 0x23E44, symBinAddr: 0x1000271B8, symSize: 0x48 }
  - { offset: 0x25D67, size: 0x8, addend: 0x0, symName: __ZNSt3__120__shared_ptr_emplaceI11solid_colorNS_9allocatorIS1_EEE21__on_zero_shared_implB8ne180100IS3_Li0EEEvv, symObjAddr: 0x23E8C, symBinAddr: 0x100027200, symSize: 0x44 }
  - { offset: 0x25DB7, size: 0x8, addend: 0x0, symName: __ZNSt3__116allocator_traitsINS_9allocatorI11solid_colorEEE7destroyB8ne180100IS2_vEEvRS3_PT_, symObjAddr: 0x23ED0, symBinAddr: 0x100027244, symSize: 0x2C }
  - { offset: 0x25DF4, size: 0x8, addend: 0x0, symName: __ZNSt3__19allocatorI11solid_colorE7destroyB8ne180100EPS1_, symObjAddr: 0x23EFC, symBinAddr: 0x100027270, symSize: 0x30 }
  - { offset: 0x25E28, size: 0x8, addend: 0x0, symName: __ZNSt3__116allocator_traitsINS_9allocatorINS_20__shared_ptr_emplaceI11solid_colorNS1_IS3_EEEEEEE10deallocateB8ne180100ERS6_PS5_m, symObjAddr: 0x23F2C, symBinAddr: 0x1000272A0, symSize: 0x34 }
  - { offset: 0x25E6A, size: 0x8, addend: 0x0, symName: __ZNSt3__114pointer_traitsIPNS_20__shared_ptr_emplaceI11solid_colorNS_9allocatorIS2_EEEEE10pointer_toB8ne180100ERS5_, symObjAddr: 0x23F60, symBinAddr: 0x1000272D4, symSize: 0x14 }
  - { offset: 0x25E8D, size: 0x8, addend: 0x0, symName: __ZNSt3__19allocatorINS_20__shared_ptr_emplaceI11solid_colorNS0_IS2_EEEEE10deallocateB8ne180100EPS4_m, symObjAddr: 0x23F74, symBinAddr: 0x1000272E8, symSize: 0x44 }
  - { offset: 0x25ECF, size: 0x8, addend: 0x0, symName: __ZNSt3__110shared_ptrI11solid_colorEC1B8ne180100Ev, symObjAddr: 0x23FB8, symBinAddr: 0x10002732C, symSize: 0x2C }
  - { offset: 0x25EF9, size: 0x8, addend: 0x0, symName: __ZNSt3__110shared_ptrI11solid_colorE18__enable_weak_thisB8ne180100Ez, symObjAddr: 0x23FE4, symBinAddr: 0x100027358, symSize: 0x10 }
  - { offset: 0x25F20, size: 0x8, addend: 0x0, symName: __ZNSt3__110shared_ptrI11solid_colorEC2B8ne180100Ev, symObjAddr: 0x23FF4, symBinAddr: 0x100027368, symSize: 0x1C }
  - { offset: 0x25F4A, size: 0x8, addend: 0x0, symName: __ZNSt3__120__shared_ptr_emplaceI11solid_colorNS_9allocatorIS1_EEE8_Storage10__get_elemB8ne180100Ev, symObjAddr: 0x24010, symBinAddr: 0x100027384, symSize: 0x3C }
  - { offset: 0x25F9D, size: 0x8, addend: 0x0, symName: __ZNSt3__117__compressed_pairINS_9allocatorI11solid_colorEES2_E17__get_second_baseB8ne180100EPS4_, symObjAddr: 0x2404C, symBinAddr: 0x1000273C0, symSize: 0x14 }
  - { offset: 0x25FC0, size: 0x8, addend: 0x0, symName: __ZNSt3__118__allocation_guardINS_9allocatorINS_20__shared_ptr_emplaceI11solid_colorNS1_IS3_EEEEEEED2B8ne180100Ev, symObjAddr: 0x24060, symBinAddr: 0x1000273D4, symSize: 0x2C }
  - { offset: 0x25FEA, size: 0x8, addend: 0x0, symName: __ZNSt3__118__allocation_guardINS_9allocatorINS_20__shared_ptr_emplaceI11solid_colorNS1_IS3_EEEEEEE9__destroyB8ne180100Ev, symObjAddr: 0x2408C, symBinAddr: 0x100027400, symSize: 0x4C }
  - { offset: 0x26010, size: 0x8, addend: 0x0, symName: __ZNSt3__19allocatorI11solid_colorEC2B8ne180100Ev, symObjAddr: 0x240D8, symBinAddr: 0x10002744C, symSize: 0x2C }
  - { offset: 0x2603A, size: 0x8, addend: 0x0, symName: __ZNSt3__116__non_trivial_ifILb1ENS_9allocatorI11solid_colorEEEC2B8ne180100Ev, symObjAddr: 0x24104, symBinAddr: 0x100027478, symSize: 0x14 }
  - { offset: 0x26064, size: 0x8, addend: 0x0, symName: __ZNSt3__110shared_ptrI7textureEC2B8ne180100I11solid_colorvEEONS0_IT_EE, symObjAddr: 0x24118, symBinAddr: 0x10002748C, symSize: 0x40 }
  - { offset: 0x260A7, size: 0x8, addend: 0x0, symName: __ZN15checker_textureC2EdNSt3__110shared_ptrI7textureEES3_, symObjAddr: 0x24158, symBinAddr: 0x1000274CC, symSize: 0x80 }
  - { offset: 0x260FD, size: 0x8, addend: 0x0, symName: __ZNSt3__110shared_ptrI7textureEC1B8ne180100ERKS2_, symObjAddr: 0x241D8, symBinAddr: 0x10002754C, symSize: 0x34 }
  - { offset: 0x26136, size: 0x8, addend: 0x0, symName: __ZN15checker_textureD1Ev, symObjAddr: 0x2420C, symBinAddr: 0x100027580, symSize: 0x2C }
  - { offset: 0x26162, size: 0x8, addend: 0x0, symName: __ZN15checker_textureD0Ev, symObjAddr: 0x24238, symBinAddr: 0x1000275AC, symSize: 0x30 }
  - { offset: 0x2618E, size: 0x8, addend: 0x0, symName: __ZNK15checker_texture5valueEddRK4vec3, symObjAddr: 0x24268, symBinAddr: 0x1000275DC, symSize: 0x15C }
  - { offset: 0x26216, size: 0x8, addend: 0x0, symName: __ZNSt3__110shared_ptrI7textureEC2B8ne180100ERKS2_, symObjAddr: 0x243C4, symBinAddr: 0x100027738, symSize: 0x70 }
  - { offset: 0x2624F, size: 0x8, addend: 0x0, symName: __ZN15checker_textureD2Ev, symObjAddr: 0x24434, symBinAddr: 0x1000277A8, symSize: 0x54 }
  - { offset: 0x2627B, size: 0x8, addend: 0x0, symName: __ZNKSt3__110shared_ptrI7textureEptB8ne180100Ev, symObjAddr: 0x24488, symBinAddr: 0x1000277FC, symSize: 0x18 }
  - { offset: 0x262A1, size: 0x8, addend: 0x0, symName: __ZNSt3__110shared_ptrI7textureED2B8ne180100Ev, symObjAddr: 0x244A0, symBinAddr: 0x100027814, symSize: 0x54 }
  - { offset: 0x262CB, size: 0x8, addend: 0x0, symName: __ZNSt3__110shared_ptrI11solid_colorED2B8ne180100Ev, symObjAddr: 0x244F4, symBinAddr: 0x100027868, symSize: 0x54 }
  - { offset: 0x262F5, size: 0x8, addend: 0x0, symName: __ZNSt3__120__shared_ptr_emplaceI15checker_textureNS_9allocatorIS1_EEE8_StorageD2B8ne180100Ev, symObjAddr: 0x24548, symBinAddr: 0x1000278BC, symSize: 0x2C }
  - { offset: 0x2631F, size: 0x8, addend: 0x0, symName: __ZNSt3__120__shared_ptr_emplaceI15checker_textureNS_9allocatorIS1_EEED2Ev, symObjAddr: 0x24574, symBinAddr: 0x1000278E8, symSize: 0x48 }
  - { offset: 0x2634B, size: 0x8, addend: 0x0, symName: __ZNSt3__120__shared_ptr_emplaceI15checker_textureNS_9allocatorIS1_EEE21__on_zero_shared_implB8ne180100IS3_Li0EEEvv, symObjAddr: 0x245BC, symBinAddr: 0x100027930, symSize: 0x44 }
  - { offset: 0x2639B, size: 0x8, addend: 0x0, symName: __ZNSt3__116allocator_traitsINS_9allocatorI15checker_textureEEE7destroyB8ne180100IS2_vEEvRS3_PT_, symObjAddr: 0x24600, symBinAddr: 0x100027974, symSize: 0x2C }
  - { offset: 0x263D8, size: 0x8, addend: 0x0, symName: __ZNSt3__19allocatorI15checker_textureE7destroyB8ne180100EPS1_, symObjAddr: 0x2462C, symBinAddr: 0x1000279A0, symSize: 0x30 }
  - { offset: 0x2640C, size: 0x8, addend: 0x0, symName: __ZNSt3__116allocator_traitsINS_9allocatorINS_20__shared_ptr_emplaceI15checker_textureNS1_IS3_EEEEEEE10deallocateB8ne180100ERS6_PS5_m, symObjAddr: 0x2465C, symBinAddr: 0x1000279D0, symSize: 0x34 }
  - { offset: 0x2644E, size: 0x8, addend: 0x0, symName: __ZNSt3__114pointer_traitsIPNS_20__shared_ptr_emplaceI15checker_textureNS_9allocatorIS2_EEEEE10pointer_toB8ne180100ERS5_, symObjAddr: 0x24690, symBinAddr: 0x100027A04, symSize: 0x14 }
  - { offset: 0x26471, size: 0x8, addend: 0x0, symName: __ZNSt3__19allocatorINS_20__shared_ptr_emplaceI15checker_textureNS0_IS2_EEEEE10deallocateB8ne180100EPS4_m, symObjAddr: 0x246A4, symBinAddr: 0x100027A18, symSize: 0x44 }
  - { offset: 0x264B3, size: 0x8, addend: 0x0, symName: __ZNSt3__110shared_ptrI15checker_textureEC1B8ne180100Ev, symObjAddr: 0x246E8, symBinAddr: 0x100027A5C, symSize: 0x2C }
  - { offset: 0x264DD, size: 0x8, addend: 0x0, symName: __ZNSt3__110shared_ptrI15checker_textureE18__enable_weak_thisB8ne180100Ez, symObjAddr: 0x24714, symBinAddr: 0x100027A88, symSize: 0x10 }
  - { offset: 0x26504, size: 0x8, addend: 0x0, symName: __ZNSt3__110shared_ptrI15checker_textureEC2B8ne180100Ev, symObjAddr: 0x24724, symBinAddr: 0x100027A98, symSize: 0x1C }
  - { offset: 0x2652E, size: 0x8, addend: 0x0, symName: __ZNSt3__120__shared_ptr_emplaceI15checker_textureNS_9allocatorIS1_EEE8_Storage10__get_elemB8ne180100Ev, symObjAddr: 0x24740, symBinAddr: 0x100027AB4, symSize: 0x3C }
  - { offset: 0x26581, size: 0x8, addend: 0x0, symName: __ZNSt3__117__compressed_pairINS_9allocatorI15checker_textureEES2_E17__get_second_baseB8ne180100EPS4_, symObjAddr: 0x2477C, symBinAddr: 0x100027AF0, symSize: 0x14 }
  - { offset: 0x265A4, size: 0x8, addend: 0x0, symName: __ZNSt3__118__allocation_guardINS_9allocatorINS_20__shared_ptr_emplaceI15checker_textureNS1_IS3_EEEEEEED2B8ne180100Ev, symObjAddr: 0x24790, symBinAddr: 0x100027B04, symSize: 0x2C }
  - { offset: 0x265CE, size: 0x8, addend: 0x0, symName: __ZNSt3__118__allocation_guardINS_9allocatorINS_20__shared_ptr_emplaceI15checker_textureNS1_IS3_EEEEEEE9__destroyB8ne180100Ev, symObjAddr: 0x247BC, symBinAddr: 0x100027B30, symSize: 0x4C }
  - { offset: 0x265F4, size: 0x8, addend: 0x0, symName: __ZNSt3__19allocatorI15checker_textureEC2B8ne180100Ev, symObjAddr: 0x24808, symBinAddr: 0x100027B7C, symSize: 0x2C }
  - { offset: 0x2661E, size: 0x8, addend: 0x0, symName: __ZNSt3__116__non_trivial_ifILb1ENS_9allocatorI15checker_textureEEEC2B8ne180100Ev, symObjAddr: 0x24834, symBinAddr: 0x100027BA8, symSize: 0x14 }
  - { offset: 0x26648, size: 0x8, addend: 0x0, symName: __ZNSt3__110shared_ptrI15checker_textureED2B8ne180100Ev, symObjAddr: 0x24848, symBinAddr: 0x100027BBC, symSize: 0x54 }
  - { offset: 0x26672, size: 0x8, addend: 0x0, symName: __ZNSt3__19allocatorI10lambertianEC1B8ne180100Ev, symObjAddr: 0x24934, symBinAddr: 0x100027CA8, symSize: 0x2C }
  - { offset: 0x266E8, size: 0x8, addend: 0x0, symName: __ZNSt3__118__allocation_guardINS_9allocatorINS_20__shared_ptr_emplaceI10lambertianNS1_IS3_EEEEEEEC1B8ne180100IS4_EET_m, symObjAddr: 0x24960, symBinAddr: 0x100027CD4, symSize: 0x34 }
  - { offset: 0x26737, size: 0x8, addend: 0x0, symName: __ZNKSt3__118__allocation_guardINS_9allocatorINS_20__shared_ptr_emplaceI10lambertianNS1_IS3_EEEEEEE5__getB8ne180100Ev, symObjAddr: 0x24994, symBinAddr: 0x100027D08, symSize: 0x18 }
  - { offset: 0x2675D, size: 0x8, addend: 0x0, symName: __ZNSt3__120__shared_ptr_emplaceI10lambertianNS_9allocatorIS1_EEEC1B8ne180100IJRNS_10shared_ptrI15checker_textureEEES3_Li0EEES3_DpOT_, symObjAddr: 0x249AC, symBinAddr: 0x100027D20, symSize: 0x34 }
  - { offset: 0x267BF, size: 0x8, addend: 0x0, symName: __ZNSt3__118__allocation_guardINS_9allocatorINS_20__shared_ptr_emplaceI10lambertianNS1_IS3_EEEEEEE13__release_ptrB8ne180100Ev, symObjAddr: 0x249E0, symBinAddr: 0x100027D54, symSize: 0x24 }
  - { offset: 0x267F3, size: 0x8, addend: 0x0, symName: __ZNSt3__110shared_ptrI10lambertianE27__create_with_control_blockB8ne180100IS1_NS_20__shared_ptr_emplaceIS1_NS_9allocatorIS1_EEEEEES2_PT_PT0_, symObjAddr: 0x24A04, symBinAddr: 0x100027D78, symSize: 0xA4 }
  - { offset: 0x26848, size: 0x8, addend: 0x0, symName: __ZNSt3__120__shared_ptr_emplaceI10lambertianNS_9allocatorIS1_EEE10__get_elemB8ne180100Ev, symObjAddr: 0x24AA8, symBinAddr: 0x100027E1C, symSize: 0x28 }
  - { offset: 0x2686E, size: 0x8, addend: 0x0, symName: __ZNSt3__118__allocation_guardINS_9allocatorINS_20__shared_ptr_emplaceI10lambertianNS1_IS3_EEEEEEED1B8ne180100Ev, symObjAddr: 0x24AD0, symBinAddr: 0x100027E44, symSize: 0x2C }
  - { offset: 0x26898, size: 0x8, addend: 0x0, symName: __ZNSt3__118__allocation_guardINS_9allocatorINS_20__shared_ptr_emplaceI10lambertianNS1_IS3_EEEEEEEC2B8ne180100IS4_EET_m, symObjAddr: 0x24AFC, symBinAddr: 0x100027E70, symSize: 0x50 }
  - { offset: 0x268E7, size: 0x8, addend: 0x0, symName: __ZNSt3__19allocatorINS_20__shared_ptr_emplaceI10lambertianNS0_IS2_EEEEEC1B8ne180100IS2_EERKNS0_IT_EE, symObjAddr: 0x24B4C, symBinAddr: 0x100027EC0, symSize: 0x34 }
  - { offset: 0x26925, size: 0x8, addend: 0x0, symName: __ZNSt3__116allocator_traitsINS_9allocatorINS_20__shared_ptr_emplaceI10lambertianNS1_IS3_EEEEEEE8allocateB8ne180100ERS6_m, symObjAddr: 0x24B80, symBinAddr: 0x100027EF4, symSize: 0x2C }
  - { offset: 0x26958, size: 0x8, addend: 0x0, symName: __ZNSt3__19allocatorINS_20__shared_ptr_emplaceI10lambertianNS0_IS2_EEEEEC2B8ne180100IS2_EERKNS0_IT_EE, symObjAddr: 0x24BAC, symBinAddr: 0x100027F20, symSize: 0x30 }
  - { offset: 0x26996, size: 0x8, addend: 0x0, symName: __ZNSt3__116__non_trivial_ifILb1ENS_9allocatorINS_20__shared_ptr_emplaceI10lambertianNS1_IS3_EEEEEEEC2B8ne180100Ev, symObjAddr: 0x24BDC, symBinAddr: 0x100027F50, symSize: 0x14 }
  - { offset: 0x269C0, size: 0x8, addend: 0x0, symName: __ZNSt3__19allocatorINS_20__shared_ptr_emplaceI10lambertianNS0_IS2_EEEEE8allocateB8ne180100Em, symObjAddr: 0x24BF0, symBinAddr: 0x100027F64, symSize: 0x5C }
  - { offset: 0x269FE, size: 0x8, addend: 0x0, symName: __ZNSt3__116allocator_traitsINS_9allocatorINS_20__shared_ptr_emplaceI10lambertianNS1_IS3_EEEEEEE8max_sizeB8ne180100IS6_vEEmRKS6_, symObjAddr: 0x24C4C, symBinAddr: 0x100027FC0, symSize: 0x24 }
  - { offset: 0x26A2C, size: 0x8, addend: 0x0, symName: __ZNKSt3__19allocatorINS_20__shared_ptr_emplaceI10lambertianNS0_IS2_EEEEE8max_sizeB8ne180100Ev, symObjAddr: 0x24C70, symBinAddr: 0x100027FE4, symSize: 0x18 }
  - { offset: 0x26A52, size: 0x8, addend: 0x0, symName: __ZNSt3__120__shared_ptr_emplaceI10lambertianNS_9allocatorIS1_EEEC2B8ne180100IJRNS_10shared_ptrI15checker_textureEEES3_Li0EEES3_DpOT_, symObjAddr: 0x24C88, symBinAddr: 0x100027FFC, symSize: 0xBC }
  - { offset: 0x26AD5, size: 0x8, addend: 0x0, symName: __ZNSt3__120__shared_ptr_emplaceI10lambertianNS_9allocatorIS1_EEE8_StorageC1B8ne180100EOS3_, symObjAddr: 0x24D44, symBinAddr: 0x1000280B8, symSize: 0x34 }
  - { offset: 0x26B0E, size: 0x8, addend: 0x0, symName: __ZNSt3__120__shared_ptr_emplaceI10lambertianNS_9allocatorIS1_EEE11__get_allocB8ne180100Ev, symObjAddr: 0x24D78, symBinAddr: 0x1000280EC, symSize: 0x28 }
  - { offset: 0x26B39, size: 0x8, addend: 0x0, symName: __ZNSt3__116allocator_traitsINS_9allocatorI10lambertianEEE9constructB8ne180100IS2_JRNS_10shared_ptrI15checker_textureEEEvEEvRS3_PT_DpOT0_, symObjAddr: 0x24DA0, symBinAddr: 0x100028114, symSize: 0x34 }
  - { offset: 0x26B90, size: 0x8, addend: 0x0, symName: __ZNSt3__120__shared_ptr_emplaceI10lambertianNS_9allocatorIS1_EEE8_StorageD1B8ne180100Ev, symObjAddr: 0x24DD4, symBinAddr: 0x100028148, symSize: 0x2C }
  - { offset: 0x26BBA, size: 0x8, addend: 0x0, symName: __ZNSt3__120__shared_ptr_emplaceI10lambertianNS_9allocatorIS1_EEED1Ev, symObjAddr: 0x24E00, symBinAddr: 0x100028174, symSize: 0x2C }
  - { offset: 0x26BE6, size: 0x8, addend: 0x0, symName: __ZNSt3__120__shared_ptr_emplaceI10lambertianNS_9allocatorIS1_EEED0Ev, symObjAddr: 0x24E2C, symBinAddr: 0x1000281A0, symSize: 0x30 }
  - { offset: 0x26C12, size: 0x8, addend: 0x0, symName: __ZNSt3__120__shared_ptr_emplaceI10lambertianNS_9allocatorIS1_EEE16__on_zero_sharedEv, symObjAddr: 0x24E5C, symBinAddr: 0x1000281D0, symSize: 0x24 }
  - { offset: 0x26C38, size: 0x8, addend: 0x0, symName: __ZNSt3__120__shared_ptr_emplaceI10lambertianNS_9allocatorIS1_EEE21__on_zero_shared_weakEv, symObjAddr: 0x24E80, symBinAddr: 0x1000281F4, symSize: 0x5C }
  - { offset: 0x26C79, size: 0x8, addend: 0x0, symName: __ZNSt3__120__shared_ptr_emplaceI10lambertianNS_9allocatorIS1_EEE8_StorageC2B8ne180100EOS3_, symObjAddr: 0x24EDC, symBinAddr: 0x100028250, symSize: 0x30 }
  - { offset: 0x26CB2, size: 0x8, addend: 0x0, symName: __ZNSt3__120__shared_ptr_emplaceI10lambertianNS_9allocatorIS1_EEE8_Storage11__get_allocB8ne180100Ev, symObjAddr: 0x24F0C, symBinAddr: 0x100028280, symSize: 0x3C }
  - { offset: 0x26D05, size: 0x8, addend: 0x0, symName: __ZNSt3__117__compressed_pairINS_9allocatorI10lambertianEES2_E16__get_first_baseB8ne180100EPS4_, symObjAddr: 0x24F48, symBinAddr: 0x1000282BC, symSize: 0x14 }
  - { offset: 0x26D28, size: 0x8, addend: 0x0, symName: __ZNSt3__19allocatorI10lambertianE9constructB8ne180100IS1_JRNS_10shared_ptrI15checker_textureEEEEEvPT_DpOT0_, symObjAddr: 0x24F5C, symBinAddr: 0x1000282D0, symSize: 0x74 }
  - { offset: 0x26D7E, size: 0x8, addend: 0x0, symName: __ZNSt3__110shared_ptrI7textureEC1B8ne180100I15checker_texturevEERKNS0_IT_EE, symObjAddr: 0x24FD0, symBinAddr: 0x100028344, symSize: 0x34 }
  - { offset: 0x26DC1, size: 0x8, addend: 0x0, symName: __ZN10lambertianC1ENSt3__110shared_ptrI7textureEE, symObjAddr: 0x25004, symBinAddr: 0x100028378, symSize: 0x34 }
  - { offset: 0x26DFA, size: 0x8, addend: 0x0, symName: __ZNSt3__110shared_ptrI7textureEC2B8ne180100I15checker_texturevEERKNS0_IT_EE, symObjAddr: 0x25038, symBinAddr: 0x1000283AC, symSize: 0x70 }
  - { offset: 0x26E3D, size: 0x8, addend: 0x0, symName: __ZN10lambertianC2ENSt3__110shared_ptrI7textureEE, symObjAddr: 0x250A8, symBinAddr: 0x10002841C, symSize: 0x54 }
  - { offset: 0x26E76, size: 0x8, addend: 0x0, symName: __ZN8materialC2Ev, symObjAddr: 0x250FC, symBinAddr: 0x100028470, symSize: 0x24 }
  - { offset: 0x26EA2, size: 0x8, addend: 0x0, symName: __ZN10lambertianD1Ev, symObjAddr: 0x25120, symBinAddr: 0x100028494, symSize: 0x2C }
  - { offset: 0x26ECE, size: 0x8, addend: 0x0, symName: __ZN10lambertianD0Ev, symObjAddr: 0x2514C, symBinAddr: 0x1000284C0, symSize: 0x30 }
  - { offset: 0x26EFA, size: 0x8, addend: 0x0, symName: __ZNK10lambertian7scatterERK3rayRK10hit_recordR4vec3RS0_, symObjAddr: 0x2517C, symBinAddr: 0x1000284F0, symSize: 0x118 }
  - { offset: 0x26F66, size: 0x8, addend: 0x0, symName: __ZN8materialD1Ev, symObjAddr: 0x25294, symBinAddr: 0x100028608, symSize: 0x2C }
  - { offset: 0x26F90, size: 0x8, addend: 0x0, symName: __ZN8materialD0Ev, symObjAddr: 0x252C0, symBinAddr: 0x100028634, symSize: 0x30 }
  - { offset: 0x26FBA, size: 0x8, addend: 0x0, symName: __ZNK8material7scatterERK3rayRK10hit_recordR4vec3RS0_, symObjAddr: 0x252F0, symBinAddr: 0x100028664, symSize: 0x28 }
  - { offset: 0x27018, size: 0x8, addend: 0x0, symName: __ZN8materialD2Ev, symObjAddr: 0x25318, symBinAddr: 0x10002868C, symSize: 0x14 }
  - { offset: 0x27042, size: 0x8, addend: 0x0, symName: __ZN10lambertianD2Ev, symObjAddr: 0x2532C, symBinAddr: 0x1000286A0, symSize: 0x48 }
  - { offset: 0x2706D, size: 0x8, addend: 0x0, symName: __Z18random_unit_vectorv, symObjAddr: 0x25374, symBinAddr: 0x1000286E8, symSize: 0xA0 }
  - { offset: 0x270B6, size: 0x8, addend: 0x0, symName: __ZNK4vec39near_zeroEv, symObjAddr: 0x25414, symBinAddr: 0x100028788, symSize: 0x98 }
  - { offset: 0x270EA, size: 0x8, addend: 0x0, symName: __ZNK3ray4timeEv, symObjAddr: 0x254AC, symBinAddr: 0x100028820, symSize: 0x18 }
  - { offset: 0x27110, size: 0x8, addend: 0x0, symName: __ZNSt3__120__shared_ptr_emplaceI10lambertianNS_9allocatorIS1_EEE8_StorageD2B8ne180100Ev, symObjAddr: 0x254C4, symBinAddr: 0x100028838, symSize: 0x2C }
  - { offset: 0x2713A, size: 0x8, addend: 0x0, symName: __ZNSt3__120__shared_ptr_emplaceI10lambertianNS_9allocatorIS1_EEED2Ev, symObjAddr: 0x254F0, symBinAddr: 0x100028864, symSize: 0x48 }
  - { offset: 0x27166, size: 0x8, addend: 0x0, symName: __ZNSt3__120__shared_ptr_emplaceI10lambertianNS_9allocatorIS1_EEE21__on_zero_shared_implB8ne180100IS3_Li0EEEvv, symObjAddr: 0x25538, symBinAddr: 0x1000288AC, symSize: 0x44 }
  - { offset: 0x271B6, size: 0x8, addend: 0x0, symName: __ZNSt3__116allocator_traitsINS_9allocatorI10lambertianEEE7destroyB8ne180100IS2_vEEvRS3_PT_, symObjAddr: 0x2557C, symBinAddr: 0x1000288F0, symSize: 0x2C }
  - { offset: 0x271F3, size: 0x8, addend: 0x0, symName: __ZNSt3__19allocatorI10lambertianE7destroyB8ne180100EPS1_, symObjAddr: 0x255A8, symBinAddr: 0x10002891C, symSize: 0x30 }
  - { offset: 0x27227, size: 0x8, addend: 0x0, symName: __ZNSt3__116allocator_traitsINS_9allocatorINS_20__shared_ptr_emplaceI10lambertianNS1_IS3_EEEEEEE10deallocateB8ne180100ERS6_PS5_m, symObjAddr: 0x255D8, symBinAddr: 0x10002894C, symSize: 0x34 }
  - { offset: 0x27269, size: 0x8, addend: 0x0, symName: __ZNSt3__114pointer_traitsIPNS_20__shared_ptr_emplaceI10lambertianNS_9allocatorIS2_EEEEE10pointer_toB8ne180100ERS5_, symObjAddr: 0x2560C, symBinAddr: 0x100028980, symSize: 0x14 }
  - { offset: 0x2728C, size: 0x8, addend: 0x0, symName: __ZNSt3__19allocatorINS_20__shared_ptr_emplaceI10lambertianNS0_IS2_EEEEE10deallocateB8ne180100EPS4_m, symObjAddr: 0x25620, symBinAddr: 0x100028994, symSize: 0x44 }
  - { offset: 0x272CE, size: 0x8, addend: 0x0, symName: __ZNSt3__110shared_ptrI10lambertianEC1B8ne180100Ev, symObjAddr: 0x25664, symBinAddr: 0x1000289D8, symSize: 0x2C }
  - { offset: 0x272F8, size: 0x8, addend: 0x0, symName: __ZNSt3__110shared_ptrI10lambertianE18__enable_weak_thisB8ne180100Ez, symObjAddr: 0x25690, symBinAddr: 0x100028A04, symSize: 0x10 }
  - { offset: 0x2731F, size: 0x8, addend: 0x0, symName: __ZNSt3__110shared_ptrI10lambertianEC2B8ne180100Ev, symObjAddr: 0x256A0, symBinAddr: 0x100028A14, symSize: 0x1C }
  - { offset: 0x27349, size: 0x8, addend: 0x0, symName: __ZNSt3__120__shared_ptr_emplaceI10lambertianNS_9allocatorIS1_EEE8_Storage10__get_elemB8ne180100Ev, symObjAddr: 0x256BC, symBinAddr: 0x100028A30, symSize: 0x3C }
  - { offset: 0x2739C, size: 0x8, addend: 0x0, symName: __ZNSt3__117__compressed_pairINS_9allocatorI10lambertianEES2_E17__get_second_baseB8ne180100EPS4_, symObjAddr: 0x256F8, symBinAddr: 0x100028A6C, symSize: 0x14 }
  - { offset: 0x273BF, size: 0x8, addend: 0x0, symName: __ZNSt3__118__allocation_guardINS_9allocatorINS_20__shared_ptr_emplaceI10lambertianNS1_IS3_EEEEEEED2B8ne180100Ev, symObjAddr: 0x2570C, symBinAddr: 0x100028A80, symSize: 0x2C }
  - { offset: 0x273E9, size: 0x8, addend: 0x0, symName: __ZNSt3__118__allocation_guardINS_9allocatorINS_20__shared_ptr_emplaceI10lambertianNS1_IS3_EEEEEEE9__destroyB8ne180100Ev, symObjAddr: 0x25738, symBinAddr: 0x100028AAC, symSize: 0x4C }
  - { offset: 0x2740F, size: 0x8, addend: 0x0, symName: __ZNSt3__19allocatorI10lambertianEC2B8ne180100Ev, symObjAddr: 0x25784, symBinAddr: 0x100028AF8, symSize: 0x2C }
  - { offset: 0x27439, size: 0x8, addend: 0x0, symName: __ZNSt3__116__non_trivial_ifILb1ENS_9allocatorI10lambertianEEEC2B8ne180100Ev, symObjAddr: 0x257B0, symBinAddr: 0x100028B24, symSize: 0x14 }
  - { offset: 0x27463, size: 0x8, addend: 0x0, symName: __ZNSt3__110shared_ptrI10lambertianED2B8ne180100Ev, symObjAddr: 0x257C4, symBinAddr: 0x100028B38, symSize: 0x54 }
  - { offset: 0x2748D, size: 0x8, addend: 0x0, symName: __ZNSt3__19allocatorI6sphereEC1B8ne180100Ev, symObjAddr: 0x258C0, symBinAddr: 0x100028C34, symSize: 0x2C }
  - { offset: 0x27503, size: 0x8, addend: 0x0, symName: __ZNSt3__118__allocation_guardINS_9allocatorINS_20__shared_ptr_emplaceI6sphereNS1_IS3_EEEEEEEC1B8ne180100IS4_EET_m, symObjAddr: 0x258EC, symBinAddr: 0x100028C60, symSize: 0x34 }
  - { offset: 0x27552, size: 0x8, addend: 0x0, symName: __ZNKSt3__118__allocation_guardINS_9allocatorINS_20__shared_ptr_emplaceI6sphereNS1_IS3_EEEEEEE5__getB8ne180100Ev, symObjAddr: 0x25920, symBinAddr: 0x100028C94, symSize: 0x18 }
  - { offset: 0x2757E, size: 0x8, addend: 0x0, symName: __ZNSt3__120__shared_ptr_emplaceI6sphereNS_9allocatorIS1_EEEC1B8ne180100IJ4vec3iNS_10shared_ptrI10lambertianEEES3_Li0EEES3_DpOT_, symObjAddr: 0x25938, symBinAddr: 0x100028CAC, symSize: 0x44 }
  - { offset: 0x27608, size: 0x8, addend: 0x0, symName: __ZNSt3__118__allocation_guardINS_9allocatorINS_20__shared_ptr_emplaceI6sphereNS1_IS3_EEEEEEE13__release_ptrB8ne180100Ev, symObjAddr: 0x2597C, symBinAddr: 0x100028CF0, symSize: 0x24 }
  - { offset: 0x2763C, size: 0x8, addend: 0x0, symName: __ZNSt3__110shared_ptrI6sphereE27__create_with_control_blockB8ne180100IS1_NS_20__shared_ptr_emplaceIS1_NS_9allocatorIS1_EEEEEES2_PT_PT0_, symObjAddr: 0x259A0, symBinAddr: 0x100028D14, symSize: 0xA4 }
  - { offset: 0x27691, size: 0x8, addend: 0x0, symName: __ZNSt3__120__shared_ptr_emplaceI6sphereNS_9allocatorIS1_EEE10__get_elemB8ne180100Ev, symObjAddr: 0x25A44, symBinAddr: 0x100028DB8, symSize: 0x28 }
  - { offset: 0x276B7, size: 0x8, addend: 0x0, symName: __ZNSt3__118__allocation_guardINS_9allocatorINS_20__shared_ptr_emplaceI6sphereNS1_IS3_EEEEEEED1B8ne180100Ev, symObjAddr: 0x25A6C, symBinAddr: 0x100028DE0, symSize: 0x2C }
  - { offset: 0x276E1, size: 0x8, addend: 0x0, symName: __ZNSt3__118__allocation_guardINS_9allocatorINS_20__shared_ptr_emplaceI6sphereNS1_IS3_EEEEEEEC2B8ne180100IS4_EET_m, symObjAddr: 0x25A98, symBinAddr: 0x100028E0C, symSize: 0x50 }
  - { offset: 0x27730, size: 0x8, addend: 0x0, symName: __ZNSt3__19allocatorINS_20__shared_ptr_emplaceI6sphereNS0_IS2_EEEEEC1B8ne180100IS2_EERKNS0_IT_EE, symObjAddr: 0x25AE8, symBinAddr: 0x100028E5C, symSize: 0x34 }
  - { offset: 0x2776E, size: 0x8, addend: 0x0, symName: __ZNSt3__116allocator_traitsINS_9allocatorINS_20__shared_ptr_emplaceI6sphereNS1_IS3_EEEEEEE8allocateB8ne180100ERS6_m, symObjAddr: 0x25B1C, symBinAddr: 0x100028E90, symSize: 0x2C }
  - { offset: 0x277A1, size: 0x8, addend: 0x0, symName: __ZNSt3__19allocatorINS_20__shared_ptr_emplaceI6sphereNS0_IS2_EEEEEC2B8ne180100IS2_EERKNS0_IT_EE, symObjAddr: 0x25B48, symBinAddr: 0x100028EBC, symSize: 0x30 }
  - { offset: 0x277DF, size: 0x8, addend: 0x0, symName: __ZNSt3__116__non_trivial_ifILb1ENS_9allocatorINS_20__shared_ptr_emplaceI6sphereNS1_IS3_EEEEEEEC2B8ne180100Ev, symObjAddr: 0x25B78, symBinAddr: 0x100028EEC, symSize: 0x14 }
  - { offset: 0x27809, size: 0x8, addend: 0x0, symName: __ZNSt3__19allocatorINS_20__shared_ptr_emplaceI6sphereNS0_IS2_EEEEE8allocateB8ne180100Em, symObjAddr: 0x25B8C, symBinAddr: 0x100028F00, symSize: 0x5C }
  - { offset: 0x27847, size: 0x8, addend: 0x0, symName: __ZNSt3__116allocator_traitsINS_9allocatorINS_20__shared_ptr_emplaceI6sphereNS1_IS3_EEEEEEE8max_sizeB8ne180100IS6_vEEmRKS6_, symObjAddr: 0x25BE8, symBinAddr: 0x100028F5C, symSize: 0x24 }
  - { offset: 0x27875, size: 0x8, addend: 0x0, symName: __ZNKSt3__19allocatorINS_20__shared_ptr_emplaceI6sphereNS0_IS2_EEEEE8max_sizeB8ne180100Ev, symObjAddr: 0x25C0C, symBinAddr: 0x100028F80, symSize: 0x18 }
  - { offset: 0x2789B, size: 0x8, addend: 0x0, symName: __ZNSt3__120__shared_ptr_emplaceI6sphereNS_9allocatorIS1_EEEC2B8ne180100IJ4vec3iNS_10shared_ptrI10lambertianEEES3_Li0EEES3_DpOT_, symObjAddr: 0x25C24, symBinAddr: 0x100028F98, symSize: 0xCC }
  - { offset: 0x27946, size: 0x8, addend: 0x0, symName: __ZNSt3__120__shared_ptr_emplaceI6sphereNS_9allocatorIS1_EEE8_StorageC1B8ne180100EOS3_, symObjAddr: 0x25CF0, symBinAddr: 0x100029064, symSize: 0x34 }
  - { offset: 0x2797F, size: 0x8, addend: 0x0, symName: __ZNSt3__120__shared_ptr_emplaceI6sphereNS_9allocatorIS1_EEE11__get_allocB8ne180100Ev, symObjAddr: 0x25D24, symBinAddr: 0x100029098, symSize: 0x28 }
  - { offset: 0x279AA, size: 0x8, addend: 0x0, symName: __ZNSt3__116allocator_traitsINS_9allocatorI6sphereEEE9constructB8ne180100IS2_J4vec3iNS_10shared_ptrI10lambertianEEEvEEvRS3_PT_DpOT0_, symObjAddr: 0x25D4C, symBinAddr: 0x1000290C0, symSize: 0x44 }
  - { offset: 0x27A29, size: 0x8, addend: 0x0, symName: __ZNSt3__120__shared_ptr_emplaceI6sphereNS_9allocatorIS1_EEE8_StorageD1B8ne180100Ev, symObjAddr: 0x25D90, symBinAddr: 0x100029104, symSize: 0x2C }
  - { offset: 0x27A53, size: 0x8, addend: 0x0, symName: __ZNSt3__120__shared_ptr_emplaceI6sphereNS_9allocatorIS1_EEED1Ev, symObjAddr: 0x25DBC, symBinAddr: 0x100029130, symSize: 0x2C }
  - { offset: 0x27A7F, size: 0x8, addend: 0x0, symName: __ZNSt3__120__shared_ptr_emplaceI6sphereNS_9allocatorIS1_EEED0Ev, symObjAddr: 0x25DE8, symBinAddr: 0x10002915C, symSize: 0x30 }
  - { offset: 0x27AAB, size: 0x8, addend: 0x0, symName: __ZNSt3__120__shared_ptr_emplaceI6sphereNS_9allocatorIS1_EEE16__on_zero_sharedEv, symObjAddr: 0x25E18, symBinAddr: 0x10002918C, symSize: 0x24 }
  - { offset: 0x27AD1, size: 0x8, addend: 0x0, symName: __ZNSt3__120__shared_ptr_emplaceI6sphereNS_9allocatorIS1_EEE21__on_zero_shared_weakEv, symObjAddr: 0x25E3C, symBinAddr: 0x1000291B0, symSize: 0x5C }
  - { offset: 0x27B12, size: 0x8, addend: 0x0, symName: __ZNSt3__120__shared_ptr_emplaceI6sphereNS_9allocatorIS1_EEE8_StorageC2B8ne180100EOS3_, symObjAddr: 0x25E98, symBinAddr: 0x10002920C, symSize: 0x30 }
  - { offset: 0x27B4B, size: 0x8, addend: 0x0, symName: __ZNSt3__120__shared_ptr_emplaceI6sphereNS_9allocatorIS1_EEE8_Storage11__get_allocB8ne180100Ev, symObjAddr: 0x25EC8, symBinAddr: 0x10002923C, symSize: 0x3C }
  - { offset: 0x27B9E, size: 0x8, addend: 0x0, symName: __ZNSt3__117__compressed_pairINS_9allocatorI6sphereEES2_E16__get_first_baseB8ne180100EPS4_, symObjAddr: 0x25F04, symBinAddr: 0x100029278, symSize: 0x14 }
  - { offset: 0x27BC1, size: 0x8, addend: 0x0, symName: __ZNSt3__19allocatorI6sphereE9constructB8ne180100IS1_J4vec3iNS_10shared_ptrI10lambertianEEEEEvPT_DpOT0_, symObjAddr: 0x25F18, symBinAddr: 0x10002928C, symSize: 0xA4 }
  - { offset: 0x27C3D, size: 0x8, addend: 0x0, symName: __ZNSt3__110shared_ptrI8materialEC1B8ne180100I10lambertianvEEONS0_IT_EE, symObjAddr: 0x25FBC, symBinAddr: 0x100029330, symSize: 0x34 }
  - { offset: 0x27C80, size: 0x8, addend: 0x0, symName: __ZN6sphereC1ERK4vec3dNSt3__110shared_ptrI8materialEE, symObjAddr: 0x25FF0, symBinAddr: 0x100029364, symSize: 0x44 }
  - { offset: 0x27CD5, size: 0x8, addend: 0x0, symName: __ZNSt3__110shared_ptrI8materialEC2B8ne180100I10lambertianvEEONS0_IT_EE, symObjAddr: 0x26034, symBinAddr: 0x1000293A8, symSize: 0x40 }
  - { offset: 0x27D18, size: 0x8, addend: 0x0, symName: __ZN6sphereC2ERK4vec3dNSt3__110shared_ptrI8materialEE, symObjAddr: 0x26074, symBinAddr: 0x1000293E8, symSize: 0x1AC }
  - { offset: 0x27D82, size: 0x8, addend: 0x0, symName: __ZN3rayC1ERK4vec3S2_, symObjAddr: 0x26220, symBinAddr: 0x100029594, symSize: 0x40 }
  - { offset: 0x27DC8, size: 0x8, addend: 0x0, symName: __ZN4aabbC1ERK4vec3S2_, symObjAddr: 0x26298, symBinAddr: 0x10002960C, symSize: 0x3C }
  - { offset: 0x27E0E, size: 0x8, addend: 0x0, symName: __ZN6sphereD1Ev, symObjAddr: 0x262D4, symBinAddr: 0x100029648, symSize: 0x2C }
  - { offset: 0x27E3A, size: 0x8, addend: 0x0, symName: __ZN6sphereD0Ev, symObjAddr: 0x26300, symBinAddr: 0x100029674, symSize: 0x30 }
  - { offset: 0x27E66, size: 0x8, addend: 0x0, symName: __ZNK6sphere3hitERK3ray8intervalR10hit_record, symObjAddr: 0x26330, symBinAddr: 0x1000296A4, symSize: 0x25C }
  - { offset: 0x27F3D, size: 0x8, addend: 0x0, symName: __ZNK6sphere12bounding_boxEv, symObjAddr: 0x2658C, symBinAddr: 0x100029900, symSize: 0x38 }
  - { offset: 0x27F63, size: 0x8, addend: 0x0, symName: __ZN4aabbC2ERK4vec3S2_, symObjAddr: 0x265E4, symBinAddr: 0x100029958, symSize: 0x264 }
  - { offset: 0x27FA9, size: 0x8, addend: 0x0, symName: __ZNK4vec3ixEi, symObjAddr: 0x26848, symBinAddr: 0x100029BBC, symSize: 0x20 }
  - { offset: 0x27FDD, size: 0x8, addend: 0x0, symName: __ZN6sphereD2Ev, symObjAddr: 0x26868, symBinAddr: 0x100029BDC, symSize: 0x48 }
  - { offset: 0x28009, size: 0x8, addend: 0x0, symName: __ZNK3ray2atEd, symObjAddr: 0x268B0, symBinAddr: 0x100029C24, symSize: 0x64 }
  - { offset: 0x2803D, size: 0x8, addend: 0x0, symName: __ZNK3ray6originEv, symObjAddr: 0x26914, symBinAddr: 0x100029C88, symSize: 0x14 }
  - { offset: 0x28062, size: 0x8, addend: 0x0, symName: __Z3dotRK4vec3S1_, symObjAddr: 0x26928, symBinAddr: 0x100029C9C, symSize: 0x50 }
  - { offset: 0x2809D, size: 0x8, addend: 0x0, symName: __ZNK8interval9surroundsEd, symObjAddr: 0x26978, symBinAddr: 0x100029CEC, symSize: 0x60 }
  - { offset: 0x280D1, size: 0x8, addend: 0x0, symName: __ZN10hit_record15set_face_normalERK3rayRK4vec3, symObjAddr: 0x269D8, symBinAddr: 0x100029D4C, symSize: 0xA4 }
  - { offset: 0x28113, size: 0x8, addend: 0x0, symName: __ZN6sphere13get_sphere_uvERK4vec3RdS3_, symObjAddr: 0x26A7C, symBinAddr: 0x100029DF0, symSize: 0x94 }
  - { offset: 0x2816E, size: 0x8, addend: 0x0, symName: __ZNSt3__120__shared_ptr_emplaceI6sphereNS_9allocatorIS1_EEE8_StorageD2B8ne180100Ev, symObjAddr: 0x26B10, symBinAddr: 0x100029E84, symSize: 0x2C }
  - { offset: 0x28198, size: 0x8, addend: 0x0, symName: __ZNSt3__120__shared_ptr_emplaceI6sphereNS_9allocatorIS1_EEED2Ev, symObjAddr: 0x26B3C, symBinAddr: 0x100029EB0, symSize: 0x48 }
  - { offset: 0x281C4, size: 0x8, addend: 0x0, symName: __ZNSt3__120__shared_ptr_emplaceI6sphereNS_9allocatorIS1_EEE21__on_zero_shared_implB8ne180100IS3_Li0EEEvv, symObjAddr: 0x26B84, symBinAddr: 0x100029EF8, symSize: 0x44 }
  - { offset: 0x28214, size: 0x8, addend: 0x0, symName: __ZNSt3__116allocator_traitsINS_9allocatorI6sphereEEE7destroyB8ne180100IS2_vEEvRS3_PT_, symObjAddr: 0x26BC8, symBinAddr: 0x100029F3C, symSize: 0x2C }
  - { offset: 0x28251, size: 0x8, addend: 0x0, symName: __ZNSt3__19allocatorI6sphereE7destroyB8ne180100EPS1_, symObjAddr: 0x26BF4, symBinAddr: 0x100029F68, symSize: 0x30 }
  - { offset: 0x28285, size: 0x8, addend: 0x0, symName: __ZNSt3__116allocator_traitsINS_9allocatorINS_20__shared_ptr_emplaceI6sphereNS1_IS3_EEEEEEE10deallocateB8ne180100ERS6_PS5_m, symObjAddr: 0x26C24, symBinAddr: 0x100029F98, symSize: 0x34 }
  - { offset: 0x282C7, size: 0x8, addend: 0x0, symName: __ZNSt3__114pointer_traitsIPNS_20__shared_ptr_emplaceI6sphereNS_9allocatorIS2_EEEEE10pointer_toB8ne180100ERS5_, symObjAddr: 0x26C58, symBinAddr: 0x100029FCC, symSize: 0x14 }
  - { offset: 0x282EA, size: 0x8, addend: 0x0, symName: __ZNSt3__19allocatorINS_20__shared_ptr_emplaceI6sphereNS0_IS2_EEEEE10deallocateB8ne180100EPS4_m, symObjAddr: 0x26C6C, symBinAddr: 0x100029FE0, symSize: 0x44 }
  - { offset: 0x2832C, size: 0x8, addend: 0x0, symName: __ZNSt3__110shared_ptrI6sphereEC1B8ne180100Ev, symObjAddr: 0x26CB0, symBinAddr: 0x10002A024, symSize: 0x2C }
  - { offset: 0x28356, size: 0x8, addend: 0x0, symName: __ZNSt3__110shared_ptrI6sphereE18__enable_weak_thisB8ne180100Ez, symObjAddr: 0x26CDC, symBinAddr: 0x10002A050, symSize: 0x10 }
  - { offset: 0x2837D, size: 0x8, addend: 0x0, symName: __ZNSt3__110shared_ptrI6sphereEC2B8ne180100Ev, symObjAddr: 0x26CEC, symBinAddr: 0x10002A060, symSize: 0x1C }
  - { offset: 0x283A7, size: 0x8, addend: 0x0, symName: __ZNSt3__120__shared_ptr_emplaceI6sphereNS_9allocatorIS1_EEE8_Storage10__get_elemB8ne180100Ev, symObjAddr: 0x26D08, symBinAddr: 0x10002A07C, symSize: 0x3C }
  - { offset: 0x283FA, size: 0x8, addend: 0x0, symName: __ZNSt3__117__compressed_pairINS_9allocatorI6sphereEES2_E17__get_second_baseB8ne180100EPS4_, symObjAddr: 0x26D44, symBinAddr: 0x10002A0B8, symSize: 0x14 }
  - { offset: 0x2841D, size: 0x8, addend: 0x0, symName: __ZNSt3__118__allocation_guardINS_9allocatorINS_20__shared_ptr_emplaceI6sphereNS1_IS3_EEEEEEED2B8ne180100Ev, symObjAddr: 0x26D58, symBinAddr: 0x10002A0CC, symSize: 0x2C }
  - { offset: 0x28447, size: 0x8, addend: 0x0, symName: __ZNSt3__118__allocation_guardINS_9allocatorINS_20__shared_ptr_emplaceI6sphereNS1_IS3_EEEEEEE9__destroyB8ne180100Ev, symObjAddr: 0x26D84, symBinAddr: 0x10002A0F8, symSize: 0x4C }
  - { offset: 0x2846D, size: 0x8, addend: 0x0, symName: __ZNSt3__19allocatorI6sphereEC2B8ne180100Ev, symObjAddr: 0x26DD0, symBinAddr: 0x10002A144, symSize: 0x2C }
  - { offset: 0x28497, size: 0x8, addend: 0x0, symName: __ZNSt3__116__non_trivial_ifILb1ENS_9allocatorI6sphereEEEC2B8ne180100Ev, symObjAddr: 0x26DFC, symBinAddr: 0x10002A170, symSize: 0x14 }
  - { offset: 0x284C1, size: 0x8, addend: 0x0, symName: __ZNSt3__110shared_ptrI6sphereED2B8ne180100Ev, symObjAddr: 0x26E10, symBinAddr: 0x10002A184, symSize: 0x54 }
  - { offset: 0x284EB, size: 0x8, addend: 0x0, symName: __ZNSt3__110shared_ptrI8hittableEC2B8ne180100I6spherevEEONS0_IT_EE, symObjAddr: 0x26E64, symBinAddr: 0x10002A1D8, symSize: 0x40 }
  - { offset: 0x2852E, size: 0x8, addend: 0x0, symName: __ZNSt3__120__shared_ptr_emplaceI10lambertianNS_9allocatorIS1_EEEC1B8ne180100IJR4vec3ES3_Li0EEES3_DpOT_, symObjAddr: 0x26F3C, symBinAddr: 0x10002A2B0, symSize: 0x34 }
  - { offset: 0x28590, size: 0x8, addend: 0x0, symName: __ZNSt3__120__shared_ptr_emplaceI10lambertianNS_9allocatorIS1_EEEC2B8ne180100IJR4vec3ES3_Li0EEES3_DpOT_, symObjAddr: 0x26F70, symBinAddr: 0x10002A2E4, symSize: 0xBC }
  - { offset: 0x28613, size: 0x8, addend: 0x0, symName: __ZNSt3__116allocator_traitsINS_9allocatorI10lambertianEEE9constructB8ne180100IS2_JR4vec3EvEEvRS3_PT_DpOT0_, symObjAddr: 0x2702C, symBinAddr: 0x10002A3A0, symSize: 0x34 }
  - { offset: 0x2866A, size: 0x8, addend: 0x0, symName: __ZNSt3__19allocatorI10lambertianE9constructB8ne180100IS1_JR4vec3EEEvPT_DpOT0_, symObjAddr: 0x27060, symBinAddr: 0x10002A3D4, symSize: 0x30 }
  - { offset: 0x286C0, size: 0x8, addend: 0x0, symName: __ZN10lambertianC1ERK4vec3, symObjAddr: 0x27090, symBinAddr: 0x10002A404, symSize: 0x34 }
  - { offset: 0x286F8, size: 0x8, addend: 0x0, symName: __ZN10lambertianC2ERK4vec3, symObjAddr: 0x270C4, symBinAddr: 0x10002A438, symSize: 0x94 }
  - { offset: 0x28730, size: 0x8, addend: 0x0, symName: __ZNSt3__120__shared_ptr_emplaceI6sphereNS_9allocatorIS1_EEEC1B8ne180100IJR4vec3S7_dRNS_10shared_ptrI8materialEEES3_Li0EEES3_DpOT_, symObjAddr: 0x27208, symBinAddr: 0x10002A57C, symSize: 0x4C }
  - { offset: 0x287CE, size: 0x8, addend: 0x0, symName: __ZNSt3__120__shared_ptr_emplaceI6sphereNS_9allocatorIS1_EEEC2B8ne180100IJR4vec3S7_dRNS_10shared_ptrI8materialEEES3_Li0EEES3_DpOT_, symObjAddr: 0x27254, symBinAddr: 0x10002A5C8, symSize: 0xD4 }
  - { offset: 0x2888D, size: 0x8, addend: 0x0, symName: __ZNSt3__116allocator_traitsINS_9allocatorI6sphereEEE9constructB8ne180100IS2_JR4vec3S7_dRNS_10shared_ptrI8materialEEEvEEvRS3_PT_DpOT0_, symObjAddr: 0x27328, symBinAddr: 0x10002A69C, symSize: 0x4C }
  - { offset: 0x28920, size: 0x8, addend: 0x0, symName: __ZNSt3__19allocatorI6sphereE9constructB8ne180100IS1_JR4vec3S5_dRNS_10shared_ptrI8materialEEEEEvPT_DpOT0_, symObjAddr: 0x27374, symBinAddr: 0x10002A6E8, symSize: 0xA8 }
  - { offset: 0x289AF, size: 0x8, addend: 0x0, symName: __ZN6sphereC1ERK4vec3S2_dNSt3__110shared_ptrI8materialEE, symObjAddr: 0x2741C, symBinAddr: 0x10002A790, symSize: 0x4C }
  - { offset: 0x28A12, size: 0x8, addend: 0x0, symName: __ZN6sphereC2ERK4vec3S2_dNSt3__110shared_ptrI8materialEE, symObjAddr: 0x27468, symBinAddr: 0x10002A7DC, symSize: 0x33C }
  - { offset: 0x28AA8, size: 0x8, addend: 0x0, symName: __ZNSt3__19allocatorI5metalEC1B8ne180100Ev, symObjAddr: 0x27844, symBinAddr: 0x10002ABB8, symSize: 0x2C }
  - { offset: 0x28B1E, size: 0x8, addend: 0x0, symName: __ZNSt3__118__allocation_guardINS_9allocatorINS_20__shared_ptr_emplaceI5metalNS1_IS3_EEEEEEEC1B8ne180100IS4_EET_m, symObjAddr: 0x27870, symBinAddr: 0x10002ABE4, symSize: 0x34 }
  - { offset: 0x28B6D, size: 0x8, addend: 0x0, symName: __ZNKSt3__118__allocation_guardINS_9allocatorINS_20__shared_ptr_emplaceI5metalNS1_IS3_EEEEEEE5__getB8ne180100Ev, symObjAddr: 0x278A4, symBinAddr: 0x10002AC18, symSize: 0x18 }
  - { offset: 0x28B93, size: 0x8, addend: 0x0, symName: __ZNSt3__120__shared_ptr_emplaceI5metalNS_9allocatorIS1_EEEC1B8ne180100IJR4vec3RdES3_Li0EEES3_DpOT_, symObjAddr: 0x278BC, symBinAddr: 0x10002AC30, symSize: 0x3C }
  - { offset: 0x28C09, size: 0x8, addend: 0x0, symName: __ZNSt3__118__allocation_guardINS_9allocatorINS_20__shared_ptr_emplaceI5metalNS1_IS3_EEEEEEE13__release_ptrB8ne180100Ev, symObjAddr: 0x278F8, symBinAddr: 0x10002AC6C, symSize: 0x24 }
  - { offset: 0x28C3D, size: 0x8, addend: 0x0, symName: __ZNSt3__110shared_ptrI5metalE27__create_with_control_blockB8ne180100IS1_NS_20__shared_ptr_emplaceIS1_NS_9allocatorIS1_EEEEEES2_PT_PT0_, symObjAddr: 0x2791C, symBinAddr: 0x10002AC90, symSize: 0xA4 }
  - { offset: 0x28C92, size: 0x8, addend: 0x0, symName: __ZNSt3__120__shared_ptr_emplaceI5metalNS_9allocatorIS1_EEE10__get_elemB8ne180100Ev, symObjAddr: 0x279C0, symBinAddr: 0x10002AD34, symSize: 0x28 }
  - { offset: 0x28CB8, size: 0x8, addend: 0x0, symName: __ZNSt3__118__allocation_guardINS_9allocatorINS_20__shared_ptr_emplaceI5metalNS1_IS3_EEEEEEED1B8ne180100Ev, symObjAddr: 0x279E8, symBinAddr: 0x10002AD5C, symSize: 0x2C }
  - { offset: 0x28CE2, size: 0x8, addend: 0x0, symName: __ZNSt3__118__allocation_guardINS_9allocatorINS_20__shared_ptr_emplaceI5metalNS1_IS3_EEEEEEEC2B8ne180100IS4_EET_m, symObjAddr: 0x27A14, symBinAddr: 0x10002AD88, symSize: 0x50 }
  - { offset: 0x28D31, size: 0x8, addend: 0x0, symName: __ZNSt3__19allocatorINS_20__shared_ptr_emplaceI5metalNS0_IS2_EEEEEC1B8ne180100IS2_EERKNS0_IT_EE, symObjAddr: 0x27A64, symBinAddr: 0x10002ADD8, symSize: 0x34 }
  - { offset: 0x28D6F, size: 0x8, addend: 0x0, symName: __ZNSt3__116allocator_traitsINS_9allocatorINS_20__shared_ptr_emplaceI5metalNS1_IS3_EEEEEEE8allocateB8ne180100ERS6_m, symObjAddr: 0x27A98, symBinAddr: 0x10002AE0C, symSize: 0x2C }
  - { offset: 0x28DA2, size: 0x8, addend: 0x0, symName: __ZNSt3__19allocatorINS_20__shared_ptr_emplaceI5metalNS0_IS2_EEEEEC2B8ne180100IS2_EERKNS0_IT_EE, symObjAddr: 0x27AC4, symBinAddr: 0x10002AE38, symSize: 0x30 }
  - { offset: 0x28DE0, size: 0x8, addend: 0x0, symName: __ZNSt3__116__non_trivial_ifILb1ENS_9allocatorINS_20__shared_ptr_emplaceI5metalNS1_IS3_EEEEEEEC2B8ne180100Ev, symObjAddr: 0x27AF4, symBinAddr: 0x10002AE68, symSize: 0x14 }
  - { offset: 0x28E0A, size: 0x8, addend: 0x0, symName: __ZNSt3__19allocatorINS_20__shared_ptr_emplaceI5metalNS0_IS2_EEEEE8allocateB8ne180100Em, symObjAddr: 0x27B08, symBinAddr: 0x10002AE7C, symSize: 0x58 }
  - { offset: 0x28E48, size: 0x8, addend: 0x0, symName: __ZNSt3__116allocator_traitsINS_9allocatorINS_20__shared_ptr_emplaceI5metalNS1_IS3_EEEEEEE8max_sizeB8ne180100IS6_vEEmRKS6_, symObjAddr: 0x27B60, symBinAddr: 0x10002AED4, symSize: 0x24 }
  - { offset: 0x28E76, size: 0x8, addend: 0x0, symName: __ZNKSt3__19allocatorINS_20__shared_ptr_emplaceI5metalNS0_IS2_EEEEE8max_sizeB8ne180100Ev, symObjAddr: 0x27B84, symBinAddr: 0x10002AEF8, symSize: 0x14 }
  - { offset: 0x28E9C, size: 0x8, addend: 0x0, symName: __ZNSt3__120__shared_ptr_emplaceI5metalNS_9allocatorIS1_EEEC2B8ne180100IJR4vec3RdES3_Li0EEES3_DpOT_, symObjAddr: 0x27B98, symBinAddr: 0x10002AF0C, symSize: 0xC4 }
  - { offset: 0x28F33, size: 0x8, addend: 0x0, symName: __ZNSt3__120__shared_ptr_emplaceI5metalNS_9allocatorIS1_EEE8_StorageC1B8ne180100EOS3_, symObjAddr: 0x27C5C, symBinAddr: 0x10002AFD0, symSize: 0x34 }
  - { offset: 0x28F6C, size: 0x8, addend: 0x0, symName: __ZNSt3__120__shared_ptr_emplaceI5metalNS_9allocatorIS1_EEE11__get_allocB8ne180100Ev, symObjAddr: 0x27C90, symBinAddr: 0x10002B004, symSize: 0x28 }
  - { offset: 0x28F97, size: 0x8, addend: 0x0, symName: __ZNSt3__116allocator_traitsINS_9allocatorI5metalEEE9constructB8ne180100IS2_JR4vec3RdEvEEvRS3_PT_DpOT0_, symObjAddr: 0x27CB8, symBinAddr: 0x10002B02C, symSize: 0x3C }
  - { offset: 0x29002, size: 0x8, addend: 0x0, symName: __ZNSt3__120__shared_ptr_emplaceI5metalNS_9allocatorIS1_EEE8_StorageD1B8ne180100Ev, symObjAddr: 0x27CF4, symBinAddr: 0x10002B068, symSize: 0x2C }
  - { offset: 0x2902C, size: 0x8, addend: 0x0, symName: __ZNSt3__120__shared_ptr_emplaceI5metalNS_9allocatorIS1_EEED1Ev, symObjAddr: 0x27D20, symBinAddr: 0x10002B094, symSize: 0x2C }
  - { offset: 0x29058, size: 0x8, addend: 0x0, symName: __ZNSt3__120__shared_ptr_emplaceI5metalNS_9allocatorIS1_EEED0Ev, symObjAddr: 0x27D4C, symBinAddr: 0x10002B0C0, symSize: 0x30 }
  - { offset: 0x29084, size: 0x8, addend: 0x0, symName: __ZNSt3__120__shared_ptr_emplaceI5metalNS_9allocatorIS1_EEE16__on_zero_sharedEv, symObjAddr: 0x27D7C, symBinAddr: 0x10002B0F0, symSize: 0x24 }
  - { offset: 0x290AA, size: 0x8, addend: 0x0, symName: __ZNSt3__120__shared_ptr_emplaceI5metalNS_9allocatorIS1_EEE21__on_zero_shared_weakEv, symObjAddr: 0x27DA0, symBinAddr: 0x10002B114, symSize: 0x5C }
  - { offset: 0x290EB, size: 0x8, addend: 0x0, symName: __ZNSt3__120__shared_ptr_emplaceI5metalNS_9allocatorIS1_EEE8_StorageC2B8ne180100EOS3_, symObjAddr: 0x27DFC, symBinAddr: 0x10002B170, symSize: 0x30 }
  - { offset: 0x29124, size: 0x8, addend: 0x0, symName: __ZNSt3__120__shared_ptr_emplaceI5metalNS_9allocatorIS1_EEE8_Storage11__get_allocB8ne180100Ev, symObjAddr: 0x27E2C, symBinAddr: 0x10002B1A0, symSize: 0x3C }
  - { offset: 0x29177, size: 0x8, addend: 0x0, symName: __ZNSt3__117__compressed_pairINS_9allocatorI5metalEES2_E16__get_first_baseB8ne180100EPS4_, symObjAddr: 0x27E68, symBinAddr: 0x10002B1DC, symSize: 0x14 }
  - { offset: 0x2919A, size: 0x8, addend: 0x0, symName: __ZNSt3__19allocatorI5metalE9constructB8ne180100IS1_JR4vec3RdEEEvPT_DpOT0_, symObjAddr: 0x27E7C, symBinAddr: 0x10002B1F0, symSize: 0x3C }
  - { offset: 0x29203, size: 0x8, addend: 0x0, symName: __ZN5metalC1ERK4vec3d, symObjAddr: 0x27EB8, symBinAddr: 0x10002B22C, symSize: 0x3C }
  - { offset: 0x29249, size: 0x8, addend: 0x0, symName: __ZN5metalC2ERK4vec3d, symObjAddr: 0x27EF4, symBinAddr: 0x10002B268, symSize: 0xA0 }
  - { offset: 0x2928F, size: 0x8, addend: 0x0, symName: __ZN5metalD1Ev, symObjAddr: 0x27F94, symBinAddr: 0x10002B308, symSize: 0x2C }
  - { offset: 0x292BB, size: 0x8, addend: 0x0, symName: __ZN5metalD0Ev, symObjAddr: 0x27FC0, symBinAddr: 0x10002B334, symSize: 0x30 }
  - { offset: 0x292E7, size: 0x8, addend: 0x0, symName: __ZNK5metal7scatterERK3rayRK10hit_recordR4vec3RS0_, symObjAddr: 0x27FF0, symBinAddr: 0x10002B364, symSize: 0x130 }
  - { offset: 0x29354, size: 0x8, addend: 0x0, symName: __ZN5metalD2Ev, symObjAddr: 0x28120, symBinAddr: 0x10002B494, symSize: 0x2C }
  - { offset: 0x2937F, size: 0x8, addend: 0x0, symName: __Z7reflectRK4vec3S1_, symObjAddr: 0x2814C, symBinAddr: 0x10002B4C0, symSize: 0x78 }
  - { offset: 0x293BA, size: 0x8, addend: 0x0, symName: __ZNSt3__120__shared_ptr_emplaceI5metalNS_9allocatorIS1_EEE8_StorageD2B8ne180100Ev, symObjAddr: 0x281C4, symBinAddr: 0x10002B538, symSize: 0x2C }
  - { offset: 0x293E4, size: 0x8, addend: 0x0, symName: __ZNSt3__120__shared_ptr_emplaceI5metalNS_9allocatorIS1_EEED2Ev, symObjAddr: 0x281F0, symBinAddr: 0x10002B564, symSize: 0x48 }
  - { offset: 0x29410, size: 0x8, addend: 0x0, symName: __ZNSt3__120__shared_ptr_emplaceI5metalNS_9allocatorIS1_EEE21__on_zero_shared_implB8ne180100IS3_Li0EEEvv, symObjAddr: 0x28238, symBinAddr: 0x10002B5AC, symSize: 0x44 }
  - { offset: 0x29460, size: 0x8, addend: 0x0, symName: __ZNSt3__116allocator_traitsINS_9allocatorI5metalEEE7destroyB8ne180100IS2_vEEvRS3_PT_, symObjAddr: 0x2827C, symBinAddr: 0x10002B5F0, symSize: 0x2C }
  - { offset: 0x2949D, size: 0x8, addend: 0x0, symName: __ZNSt3__19allocatorI5metalE7destroyB8ne180100EPS1_, symObjAddr: 0x282A8, symBinAddr: 0x10002B61C, symSize: 0x30 }
  - { offset: 0x294D1, size: 0x8, addend: 0x0, symName: __ZNSt3__116allocator_traitsINS_9allocatorINS_20__shared_ptr_emplaceI5metalNS1_IS3_EEEEEEE10deallocateB8ne180100ERS6_PS5_m, symObjAddr: 0x282D8, symBinAddr: 0x10002B64C, symSize: 0x34 }
  - { offset: 0x29513, size: 0x8, addend: 0x0, symName: __ZNSt3__114pointer_traitsIPNS_20__shared_ptr_emplaceI5metalNS_9allocatorIS2_EEEEE10pointer_toB8ne180100ERS5_, symObjAddr: 0x2830C, symBinAddr: 0x10002B680, symSize: 0x14 }
  - { offset: 0x29536, size: 0x8, addend: 0x0, symName: __ZNSt3__19allocatorINS_20__shared_ptr_emplaceI5metalNS0_IS2_EEEEE10deallocateB8ne180100EPS4_m, symObjAddr: 0x28320, symBinAddr: 0x10002B694, symSize: 0x40 }
  - { offset: 0x29578, size: 0x8, addend: 0x0, symName: __ZNSt3__110shared_ptrI5metalEC1B8ne180100Ev, symObjAddr: 0x28360, symBinAddr: 0x10002B6D4, symSize: 0x2C }
  - { offset: 0x295A2, size: 0x8, addend: 0x0, symName: __ZNSt3__110shared_ptrI5metalE18__enable_weak_thisB8ne180100Ez, symObjAddr: 0x2838C, symBinAddr: 0x10002B700, symSize: 0x10 }
  - { offset: 0x295C9, size: 0x8, addend: 0x0, symName: __ZNSt3__110shared_ptrI5metalEC2B8ne180100Ev, symObjAddr: 0x2839C, symBinAddr: 0x10002B710, symSize: 0x1C }
  - { offset: 0x295F3, size: 0x8, addend: 0x0, symName: __ZNSt3__120__shared_ptr_emplaceI5metalNS_9allocatorIS1_EEE8_Storage10__get_elemB8ne180100Ev, symObjAddr: 0x283B8, symBinAddr: 0x10002B72C, symSize: 0x3C }
  - { offset: 0x29646, size: 0x8, addend: 0x0, symName: __ZNSt3__117__compressed_pairINS_9allocatorI5metalEES2_E17__get_second_baseB8ne180100EPS4_, symObjAddr: 0x283F4, symBinAddr: 0x10002B768, symSize: 0x14 }
  - { offset: 0x29669, size: 0x8, addend: 0x0, symName: __ZNSt3__118__allocation_guardINS_9allocatorINS_20__shared_ptr_emplaceI5metalNS1_IS3_EEEEEEED2B8ne180100Ev, symObjAddr: 0x28408, symBinAddr: 0x10002B77C, symSize: 0x2C }
  - { offset: 0x29693, size: 0x8, addend: 0x0, symName: __ZNSt3__118__allocation_guardINS_9allocatorINS_20__shared_ptr_emplaceI5metalNS1_IS3_EEEEEEE9__destroyB8ne180100Ev, symObjAddr: 0x28434, symBinAddr: 0x10002B7A8, symSize: 0x4C }
  - { offset: 0x296B9, size: 0x8, addend: 0x0, symName: __ZNSt3__19allocatorI5metalEC2B8ne180100Ev, symObjAddr: 0x28480, symBinAddr: 0x10002B7F4, symSize: 0x2C }
  - { offset: 0x296E3, size: 0x8, addend: 0x0, symName: __ZNSt3__116__non_trivial_ifILb1ENS_9allocatorI5metalEEEC2B8ne180100Ev, symObjAddr: 0x284AC, symBinAddr: 0x10002B820, symSize: 0x14 }
  - { offset: 0x2970D, size: 0x8, addend: 0x0, symName: __ZNSt3__110shared_ptrI5metalED2B8ne180100Ev, symObjAddr: 0x284C0, symBinAddr: 0x10002B834, symSize: 0x54 }
  - { offset: 0x29737, size: 0x8, addend: 0x0, symName: __ZNSt3__110shared_ptrI8materialEC1B8ne180100I5metalvEEONS0_IT_EE, symObjAddr: 0x28514, symBinAddr: 0x10002B888, symSize: 0x34 }
  - { offset: 0x2977A, size: 0x8, addend: 0x0, symName: __ZNSt3__110shared_ptrI8materialEC2B8ne180100I5metalvEEONS0_IT_EE, symObjAddr: 0x28548, symBinAddr: 0x10002B8BC, symSize: 0x40 }
  - { offset: 0x297BD, size: 0x8, addend: 0x0, symName: __ZNSt3__120__shared_ptr_emplaceI6sphereNS_9allocatorIS1_EEEC1B8ne180100IJR4vec3dRNS_10shared_ptrI8materialEEES3_Li0EEES3_DpOT_, symObjAddr: 0x28630, symBinAddr: 0x10002B9A4, symSize: 0x44 }
  - { offset: 0x29847, size: 0x8, addend: 0x0, symName: __ZNSt3__120__shared_ptr_emplaceI6sphereNS_9allocatorIS1_EEEC2B8ne180100IJR4vec3dRNS_10shared_ptrI8materialEEES3_Li0EEES3_DpOT_, symObjAddr: 0x28674, symBinAddr: 0x10002B9E8, symSize: 0xCC }
  - { offset: 0x298F2, size: 0x8, addend: 0x0, symName: __ZNSt3__116allocator_traitsINS_9allocatorI6sphereEEE9constructB8ne180100IS2_JR4vec3dRNS_10shared_ptrI8materialEEEvEEvRS3_PT_DpOT0_, symObjAddr: 0x28740, symBinAddr: 0x10002BAB4, symSize: 0x44 }
  - { offset: 0x29971, size: 0x8, addend: 0x0, symName: __ZNSt3__19allocatorI6sphereE9constructB8ne180100IS1_JR4vec3dRNS_10shared_ptrI8materialEEEEEvPT_DpOT0_, symObjAddr: 0x28784, symBinAddr: 0x10002BAF8, symSize: 0x98 }
  - { offset: 0x299ED, size: 0x8, addend: 0x0, symName: __ZNSt3__19allocatorI10dielectricEC1B8ne180100Ev, symObjAddr: 0x288B4, symBinAddr: 0x10002BC28, symSize: 0x2C }
  - { offset: 0x29A63, size: 0x8, addend: 0x0, symName: __ZNSt3__118__allocation_guardINS_9allocatorINS_20__shared_ptr_emplaceI10dielectricNS1_IS3_EEEEEEEC1B8ne180100IS4_EET_m, symObjAddr: 0x288E0, symBinAddr: 0x10002BC54, symSize: 0x34 }
  - { offset: 0x29AB2, size: 0x8, addend: 0x0, symName: __ZNKSt3__118__allocation_guardINS_9allocatorINS_20__shared_ptr_emplaceI10dielectricNS1_IS3_EEEEEEE5__getB8ne180100Ev, symObjAddr: 0x28914, symBinAddr: 0x10002BC88, symSize: 0x18 }
  - { offset: 0x29AD8, size: 0x8, addend: 0x0, symName: __ZNSt3__120__shared_ptr_emplaceI10dielectricNS_9allocatorIS1_EEEC1B8ne180100IJdES3_Li0EEES3_DpOT_, symObjAddr: 0x2892C, symBinAddr: 0x10002BCA0, symSize: 0x34 }
  - { offset: 0x29B3A, size: 0x8, addend: 0x0, symName: __ZNSt3__118__allocation_guardINS_9allocatorINS_20__shared_ptr_emplaceI10dielectricNS1_IS3_EEEEEEE13__release_ptrB8ne180100Ev, symObjAddr: 0x28960, symBinAddr: 0x10002BCD4, symSize: 0x24 }
  - { offset: 0x29B6E, size: 0x8, addend: 0x0, symName: __ZNSt3__110shared_ptrI10dielectricE27__create_with_control_blockB8ne180100IS1_NS_20__shared_ptr_emplaceIS1_NS_9allocatorIS1_EEEEEES2_PT_PT0_, symObjAddr: 0x28984, symBinAddr: 0x10002BCF8, symSize: 0xA4 }
  - { offset: 0x29BC3, size: 0x8, addend: 0x0, symName: __ZNSt3__120__shared_ptr_emplaceI10dielectricNS_9allocatorIS1_EEE10__get_elemB8ne180100Ev, symObjAddr: 0x28A28, symBinAddr: 0x10002BD9C, symSize: 0x28 }
  - { offset: 0x29BE9, size: 0x8, addend: 0x0, symName: __ZNSt3__118__allocation_guardINS_9allocatorINS_20__shared_ptr_emplaceI10dielectricNS1_IS3_EEEEEEED1B8ne180100Ev, symObjAddr: 0x28A50, symBinAddr: 0x10002BDC4, symSize: 0x2C }
  - { offset: 0x29C13, size: 0x8, addend: 0x0, symName: __ZNSt3__118__allocation_guardINS_9allocatorINS_20__shared_ptr_emplaceI10dielectricNS1_IS3_EEEEEEEC2B8ne180100IS4_EET_m, symObjAddr: 0x28A7C, symBinAddr: 0x10002BDF0, symSize: 0x50 }
  - { offset: 0x29C62, size: 0x8, addend: 0x0, symName: __ZNSt3__19allocatorINS_20__shared_ptr_emplaceI10dielectricNS0_IS2_EEEEEC1B8ne180100IS2_EERKNS0_IT_EE, symObjAddr: 0x28ACC, symBinAddr: 0x10002BE40, symSize: 0x34 }
  - { offset: 0x29CA0, size: 0x8, addend: 0x0, symName: __ZNSt3__116allocator_traitsINS_9allocatorINS_20__shared_ptr_emplaceI10dielectricNS1_IS3_EEEEEEE8allocateB8ne180100ERS6_m, symObjAddr: 0x28B00, symBinAddr: 0x10002BE74, symSize: 0x2C }
  - { offset: 0x29CD3, size: 0x8, addend: 0x0, symName: __ZNSt3__19allocatorINS_20__shared_ptr_emplaceI10dielectricNS0_IS2_EEEEEC2B8ne180100IS2_EERKNS0_IT_EE, symObjAddr: 0x28B2C, symBinAddr: 0x10002BEA0, symSize: 0x30 }
  - { offset: 0x29D11, size: 0x8, addend: 0x0, symName: __ZNSt3__116__non_trivial_ifILb1ENS_9allocatorINS_20__shared_ptr_emplaceI10dielectricNS1_IS3_EEEEEEEC2B8ne180100Ev, symObjAddr: 0x28B5C, symBinAddr: 0x10002BED0, symSize: 0x14 }
  - { offset: 0x29D3B, size: 0x8, addend: 0x0, symName: __ZNSt3__19allocatorINS_20__shared_ptr_emplaceI10dielectricNS0_IS2_EEEEE8allocateB8ne180100Em, symObjAddr: 0x28B70, symBinAddr: 0x10002BEE4, symSize: 0x5C }
  - { offset: 0x29D79, size: 0x8, addend: 0x0, symName: __ZNSt3__116allocator_traitsINS_9allocatorINS_20__shared_ptr_emplaceI10dielectricNS1_IS3_EEEEEEE8max_sizeB8ne180100IS6_vEEmRKS6_, symObjAddr: 0x28BCC, symBinAddr: 0x10002BF40, symSize: 0x24 }
  - { offset: 0x29DA7, size: 0x8, addend: 0x0, symName: __ZNKSt3__19allocatorINS_20__shared_ptr_emplaceI10dielectricNS0_IS2_EEEEE8max_sizeB8ne180100Ev, symObjAddr: 0x28BF0, symBinAddr: 0x10002BF64, symSize: 0x18 }
  - { offset: 0x29DCD, size: 0x8, addend: 0x0, symName: __ZNSt3__120__shared_ptr_emplaceI10dielectricNS_9allocatorIS1_EEEC2B8ne180100IJdES3_Li0EEES3_DpOT_, symObjAddr: 0x28C08, symBinAddr: 0x10002BF7C, symSize: 0xBC }
  - { offset: 0x29E50, size: 0x8, addend: 0x0, symName: __ZNSt3__120__shared_ptr_emplaceI10dielectricNS_9allocatorIS1_EEE8_StorageC1B8ne180100EOS3_, symObjAddr: 0x28CC4, symBinAddr: 0x10002C038, symSize: 0x34 }
  - { offset: 0x29E89, size: 0x8, addend: 0x0, symName: __ZNSt3__120__shared_ptr_emplaceI10dielectricNS_9allocatorIS1_EEE11__get_allocB8ne180100Ev, symObjAddr: 0x28CF8, symBinAddr: 0x10002C06C, symSize: 0x28 }
  - { offset: 0x29EB4, size: 0x8, addend: 0x0, symName: __ZNSt3__116allocator_traitsINS_9allocatorI10dielectricEEE9constructB8ne180100IS2_JdEvEEvRS3_PT_DpOT0_, symObjAddr: 0x28D20, symBinAddr: 0x10002C094, symSize: 0x34 }
  - { offset: 0x29F0B, size: 0x8, addend: 0x0, symName: __ZNSt3__120__shared_ptr_emplaceI10dielectricNS_9allocatorIS1_EEE8_StorageD1B8ne180100Ev, symObjAddr: 0x28D54, symBinAddr: 0x10002C0C8, symSize: 0x2C }
  - { offset: 0x29F35, size: 0x8, addend: 0x0, symName: __ZNSt3__120__shared_ptr_emplaceI10dielectricNS_9allocatorIS1_EEED1Ev, symObjAddr: 0x28D80, symBinAddr: 0x10002C0F4, symSize: 0x2C }
  - { offset: 0x29F61, size: 0x8, addend: 0x0, symName: __ZNSt3__120__shared_ptr_emplaceI10dielectricNS_9allocatorIS1_EEED0Ev, symObjAddr: 0x28DAC, symBinAddr: 0x10002C120, symSize: 0x30 }
  - { offset: 0x29F8D, size: 0x8, addend: 0x0, symName: __ZNSt3__120__shared_ptr_emplaceI10dielectricNS_9allocatorIS1_EEE16__on_zero_sharedEv, symObjAddr: 0x28DDC, symBinAddr: 0x10002C150, symSize: 0x24 }
  - { offset: 0x29FB3, size: 0x8, addend: 0x0, symName: __ZNSt3__120__shared_ptr_emplaceI10dielectricNS_9allocatorIS1_EEE21__on_zero_shared_weakEv, symObjAddr: 0x28E00, symBinAddr: 0x10002C174, symSize: 0x5C }
  - { offset: 0x29FF4, size: 0x8, addend: 0x0, symName: __ZNSt3__120__shared_ptr_emplaceI10dielectricNS_9allocatorIS1_EEE8_StorageC2B8ne180100EOS3_, symObjAddr: 0x28E5C, symBinAddr: 0x10002C1D0, symSize: 0x30 }
  - { offset: 0x2A02D, size: 0x8, addend: 0x0, symName: __ZNSt3__120__shared_ptr_emplaceI10dielectricNS_9allocatorIS1_EEE8_Storage11__get_allocB8ne180100Ev, symObjAddr: 0x28E8C, symBinAddr: 0x10002C200, symSize: 0x3C }
  - { offset: 0x2A080, size: 0x8, addend: 0x0, symName: __ZNSt3__117__compressed_pairINS_9allocatorI10dielectricEES2_E16__get_first_baseB8ne180100EPS4_, symObjAddr: 0x28EC8, symBinAddr: 0x10002C23C, symSize: 0x14 }
  - { offset: 0x2A0A3, size: 0x8, addend: 0x0, symName: __ZNSt3__19allocatorI10dielectricE9constructB8ne180100IS1_JdEEEvPT_DpOT0_, symObjAddr: 0x28EDC, symBinAddr: 0x10002C250, symSize: 0x34 }
  - { offset: 0x2A0F9, size: 0x8, addend: 0x0, symName: __ZN10dielectricC1Ed, symObjAddr: 0x28F10, symBinAddr: 0x10002C284, symSize: 0x34 }
  - { offset: 0x2A131, size: 0x8, addend: 0x0, symName: __ZN10dielectricC2Ed, symObjAddr: 0x28F44, symBinAddr: 0x10002C2B8, symSize: 0x48 }
  - { offset: 0x2A169, size: 0x8, addend: 0x0, symName: __ZN10dielectricD1Ev, symObjAddr: 0x28F8C, symBinAddr: 0x10002C300, symSize: 0x2C }
  - { offset: 0x2A195, size: 0x8, addend: 0x0, symName: __ZN10dielectricD0Ev, symObjAddr: 0x28FB8, symBinAddr: 0x10002C32C, symSize: 0x30 }
  - { offset: 0x2A1C1, size: 0x8, addend: 0x0, symName: __ZNK10dielectric7scatterERK3rayRK10hit_recordR4vec3RS0_, symObjAddr: 0x28FE8, symBinAddr: 0x10002C35C, symSize: 0x200 }
  - { offset: 0x2A279, size: 0x8, addend: 0x0, symName: __ZN10dielectricD2Ev, symObjAddr: 0x291E8, symBinAddr: 0x10002C55C, symSize: 0x2C }
  - { offset: 0x2A2A5, size: 0x8, addend: 0x0, symName: __ZN10dielectric11reflectanceEdd, symObjAddr: 0x29214, symBinAddr: 0x10002C588, symSize: 0x80 }
  - { offset: 0x2A2E3, size: 0x8, addend: 0x0, symName: __Z7refractRK4vec3S1_d, symObjAddr: 0x29294, symBinAddr: 0x10002C608, symSize: 0x108 }
  - { offset: 0x2A357, size: 0x8, addend: 0x0, symName: __ZNSt3__120__shared_ptr_emplaceI10dielectricNS_9allocatorIS1_EEE8_StorageD2B8ne180100Ev, symObjAddr: 0x29400, symBinAddr: 0x10002C774, symSize: 0x2C }
  - { offset: 0x2A381, size: 0x8, addend: 0x0, symName: __ZNSt3__120__shared_ptr_emplaceI10dielectricNS_9allocatorIS1_EEED2Ev, symObjAddr: 0x2942C, symBinAddr: 0x10002C7A0, symSize: 0x48 }
  - { offset: 0x2A3AD, size: 0x8, addend: 0x0, symName: __ZNSt3__120__shared_ptr_emplaceI10dielectricNS_9allocatorIS1_EEE21__on_zero_shared_implB8ne180100IS3_Li0EEEvv, symObjAddr: 0x29474, symBinAddr: 0x10002C7E8, symSize: 0x44 }
  - { offset: 0x2A3FD, size: 0x8, addend: 0x0, symName: __ZNSt3__116allocator_traitsINS_9allocatorI10dielectricEEE7destroyB8ne180100IS2_vEEvRS3_PT_, symObjAddr: 0x294B8, symBinAddr: 0x10002C82C, symSize: 0x2C }
  - { offset: 0x2A43A, size: 0x8, addend: 0x0, symName: __ZNSt3__19allocatorI10dielectricE7destroyB8ne180100EPS1_, symObjAddr: 0x294E4, symBinAddr: 0x10002C858, symSize: 0x30 }
  - { offset: 0x2A46E, size: 0x8, addend: 0x0, symName: __ZNSt3__116allocator_traitsINS_9allocatorINS_20__shared_ptr_emplaceI10dielectricNS1_IS3_EEEEEEE10deallocateB8ne180100ERS6_PS5_m, symObjAddr: 0x29514, symBinAddr: 0x10002C888, symSize: 0x34 }
  - { offset: 0x2A4B0, size: 0x8, addend: 0x0, symName: __ZNSt3__114pointer_traitsIPNS_20__shared_ptr_emplaceI10dielectricNS_9allocatorIS2_EEEEE10pointer_toB8ne180100ERS5_, symObjAddr: 0x29548, symBinAddr: 0x10002C8BC, symSize: 0x14 }
  - { offset: 0x2A4D3, size: 0x8, addend: 0x0, symName: __ZNSt3__19allocatorINS_20__shared_ptr_emplaceI10dielectricNS0_IS2_EEEEE10deallocateB8ne180100EPS4_m, symObjAddr: 0x2955C, symBinAddr: 0x10002C8D0, symSize: 0x44 }
  - { offset: 0x2A515, size: 0x8, addend: 0x0, symName: __ZNSt3__110shared_ptrI10dielectricEC1B8ne180100Ev, symObjAddr: 0x295A0, symBinAddr: 0x10002C914, symSize: 0x2C }
  - { offset: 0x2A53F, size: 0x8, addend: 0x0, symName: __ZNSt3__110shared_ptrI10dielectricE18__enable_weak_thisB8ne180100Ez, symObjAddr: 0x295CC, symBinAddr: 0x10002C940, symSize: 0x10 }
  - { offset: 0x2A566, size: 0x8, addend: 0x0, symName: __ZNSt3__110shared_ptrI10dielectricEC2B8ne180100Ev, symObjAddr: 0x295DC, symBinAddr: 0x10002C950, symSize: 0x1C }
  - { offset: 0x2A590, size: 0x8, addend: 0x0, symName: __ZNSt3__120__shared_ptr_emplaceI10dielectricNS_9allocatorIS1_EEE8_Storage10__get_elemB8ne180100Ev, symObjAddr: 0x295F8, symBinAddr: 0x10002C96C, symSize: 0x3C }
  - { offset: 0x2A5E3, size: 0x8, addend: 0x0, symName: __ZNSt3__117__compressed_pairINS_9allocatorI10dielectricEES2_E17__get_second_baseB8ne180100EPS4_, symObjAddr: 0x29634, symBinAddr: 0x10002C9A8, symSize: 0x14 }
  - { offset: 0x2A606, size: 0x8, addend: 0x0, symName: __ZNSt3__118__allocation_guardINS_9allocatorINS_20__shared_ptr_emplaceI10dielectricNS1_IS3_EEEEEEED2B8ne180100Ev, symObjAddr: 0x29648, symBinAddr: 0x10002C9BC, symSize: 0x2C }
  - { offset: 0x2A630, size: 0x8, addend: 0x0, symName: __ZNSt3__118__allocation_guardINS_9allocatorINS_20__shared_ptr_emplaceI10dielectricNS1_IS3_EEEEEEE9__destroyB8ne180100Ev, symObjAddr: 0x29674, symBinAddr: 0x10002C9E8, symSize: 0x4C }
  - { offset: 0x2A656, size: 0x8, addend: 0x0, symName: __ZNSt3__19allocatorI10dielectricEC2B8ne180100Ev, symObjAddr: 0x296C0, symBinAddr: 0x10002CA34, symSize: 0x2C }
  - { offset: 0x2A680, size: 0x8, addend: 0x0, symName: __ZNSt3__116__non_trivial_ifILb1ENS_9allocatorI10dielectricEEEC2B8ne180100Ev, symObjAddr: 0x296EC, symBinAddr: 0x10002CA60, symSize: 0x14 }
  - { offset: 0x2A6AA, size: 0x8, addend: 0x0, symName: __ZNSt3__110shared_ptrI10dielectricED2B8ne180100Ev, symObjAddr: 0x29700, symBinAddr: 0x10002CA74, symSize: 0x54 }
  - { offset: 0x2A6D4, size: 0x8, addend: 0x0, symName: __ZNSt3__110shared_ptrI8materialEC1B8ne180100I10dielectricvEEONS0_IT_EE, symObjAddr: 0x29754, symBinAddr: 0x10002CAC8, symSize: 0x34 }
  - { offset: 0x2A717, size: 0x8, addend: 0x0, symName: __ZNSt3__110shared_ptrI8materialEC2B8ne180100I10dielectricvEEONS0_IT_EE, symObjAddr: 0x29788, symBinAddr: 0x10002CAFC, symSize: 0x40 }
  - { offset: 0x2A75A, size: 0x8, addend: 0x0, symName: __ZNSt3__120__shared_ptr_emplaceI6sphereNS_9allocatorIS1_EEEC1B8ne180100IJ4vec3dRNS_10shared_ptrI10dielectricEEES3_Li0EEES3_DpOT_, symObjAddr: 0x29870, symBinAddr: 0x10002CBE4, symSize: 0x44 }
  - { offset: 0x2A7E4, size: 0x8, addend: 0x0, symName: __ZNSt3__120__shared_ptr_emplaceI6sphereNS_9allocatorIS1_EEEC2B8ne180100IJ4vec3dRNS_10shared_ptrI10dielectricEEES3_Li0EEES3_DpOT_, symObjAddr: 0x298B4, symBinAddr: 0x10002CC28, symSize: 0xCC }
  - { offset: 0x2A88F, size: 0x8, addend: 0x0, symName: __ZNSt3__116allocator_traitsINS_9allocatorI6sphereEEE9constructB8ne180100IS2_J4vec3dRNS_10shared_ptrI10dielectricEEEvEEvRS3_PT_DpOT0_, symObjAddr: 0x29980, symBinAddr: 0x10002CCF4, symSize: 0x44 }
  - { offset: 0x2A90E, size: 0x8, addend: 0x0, symName: __ZNSt3__19allocatorI6sphereE9constructB8ne180100IS1_J4vec3dRNS_10shared_ptrI10dielectricEEEEEvPT_DpOT0_, symObjAddr: 0x299C4, symBinAddr: 0x10002CD38, symSize: 0x98 }
  - { offset: 0x2A98A, size: 0x8, addend: 0x0, symName: __ZNSt3__110shared_ptrI8materialEC1B8ne180100I10dielectricvEERKNS0_IT_EE, symObjAddr: 0x29A5C, symBinAddr: 0x10002CDD0, symSize: 0x34 }
  - { offset: 0x2A9CD, size: 0x8, addend: 0x0, symName: __ZNSt3__110shared_ptrI8materialEC2B8ne180100I10dielectricvEERKNS0_IT_EE, symObjAddr: 0x29A90, symBinAddr: 0x10002CE04, symSize: 0x70 }
  - { offset: 0x2AA10, size: 0x8, addend: 0x0, symName: __ZNSt3__120__shared_ptr_emplaceI10lambertianNS_9allocatorIS1_EEEC1B8ne180100IJ4vec3ES3_Li0EEES3_DpOT_, symObjAddr: 0x29B98, symBinAddr: 0x10002CF0C, symSize: 0x34 }
  - { offset: 0x2AA72, size: 0x8, addend: 0x0, symName: __ZNSt3__120__shared_ptr_emplaceI10lambertianNS_9allocatorIS1_EEEC2B8ne180100IJ4vec3ES3_Li0EEES3_DpOT_, symObjAddr: 0x29BCC, symBinAddr: 0x10002CF40, symSize: 0xBC }
  - { offset: 0x2AAF5, size: 0x8, addend: 0x0, symName: __ZNSt3__116allocator_traitsINS_9allocatorI10lambertianEEE9constructB8ne180100IS2_J4vec3EvEEvRS3_PT_DpOT0_, symObjAddr: 0x29C88, symBinAddr: 0x10002CFFC, symSize: 0x34 }
  - { offset: 0x2AB4C, size: 0x8, addend: 0x0, symName: __ZNSt3__19allocatorI10lambertianE9constructB8ne180100IS1_J4vec3EEEvPT_DpOT0_, symObjAddr: 0x29CBC, symBinAddr: 0x10002D030, symSize: 0x30 }
  - { offset: 0x2ABA2, size: 0x8, addend: 0x0, symName: __ZNSt3__120__shared_ptr_emplaceI6sphereNS_9allocatorIS1_EEEC1B8ne180100IJ4vec3dRNS_10shared_ptrI10lambertianEEES3_Li0EEES3_DpOT_, symObjAddr: 0x29D94, symBinAddr: 0x10002D108, symSize: 0x44 }
  - { offset: 0x2AC2C, size: 0x8, addend: 0x0, symName: __ZNSt3__120__shared_ptr_emplaceI6sphereNS_9allocatorIS1_EEEC2B8ne180100IJ4vec3dRNS_10shared_ptrI10lambertianEEES3_Li0EEES3_DpOT_, symObjAddr: 0x29DD8, symBinAddr: 0x10002D14C, symSize: 0xCC }
  - { offset: 0x2ACD7, size: 0x8, addend: 0x0, symName: __ZNSt3__116allocator_traitsINS_9allocatorI6sphereEEE9constructB8ne180100IS2_J4vec3dRNS_10shared_ptrI10lambertianEEEvEEvRS3_PT_DpOT0_, symObjAddr: 0x29EA4, symBinAddr: 0x10002D218, symSize: 0x44 }
  - { offset: 0x2AD56, size: 0x8, addend: 0x0, symName: __ZNSt3__19allocatorI6sphereE9constructB8ne180100IS1_J4vec3dRNS_10shared_ptrI10lambertianEEEEEvPT_DpOT0_, symObjAddr: 0x29EE8, symBinAddr: 0x10002D25C, symSize: 0x98 }
  - { offset: 0x2ADD2, size: 0x8, addend: 0x0, symName: __ZNSt3__110shared_ptrI8materialEC1B8ne180100I10lambertianvEERKNS0_IT_EE, symObjAddr: 0x29F80, symBinAddr: 0x10002D2F4, symSize: 0x34 }
  - { offset: 0x2AE15, size: 0x8, addend: 0x0, symName: __ZNSt3__110shared_ptrI8materialEC2B8ne180100I10lambertianvEERKNS0_IT_EE, symObjAddr: 0x29FB4, symBinAddr: 0x10002D328, symSize: 0x70 }
  - { offset: 0x2AE58, size: 0x8, addend: 0x0, symName: __ZNSt3__120__shared_ptr_emplaceI5metalNS_9allocatorIS1_EEEC1B8ne180100IJ4vec3dES3_Li0EEES3_DpOT_, symObjAddr: 0x2A0C4, symBinAddr: 0x10002D438, symSize: 0x3C }
  - { offset: 0x2AECE, size: 0x8, addend: 0x0, symName: __ZNSt3__120__shared_ptr_emplaceI5metalNS_9allocatorIS1_EEEC2B8ne180100IJ4vec3dES3_Li0EEES3_DpOT_, symObjAddr: 0x2A100, symBinAddr: 0x10002D474, symSize: 0xC4 }
  - { offset: 0x2AF65, size: 0x8, addend: 0x0, symName: __ZNSt3__116allocator_traitsINS_9allocatorI5metalEEE9constructB8ne180100IS2_J4vec3dEvEEvRS3_PT_DpOT0_, symObjAddr: 0x2A1C4, symBinAddr: 0x10002D538, symSize: 0x3C }
  - { offset: 0x2AFD0, size: 0x8, addend: 0x0, symName: __ZNSt3__19allocatorI5metalE9constructB8ne180100IS1_J4vec3dEEEvPT_DpOT0_, symObjAddr: 0x2A200, symBinAddr: 0x10002D574, symSize: 0x3C }
  - { offset: 0x2B039, size: 0x8, addend: 0x0, symName: __ZNSt3__120__shared_ptr_emplaceI6sphereNS_9allocatorIS1_EEEC1B8ne180100IJ4vec3dRNS_10shared_ptrI5metalEEES3_Li0EEES3_DpOT_, symObjAddr: 0x2A2E4, symBinAddr: 0x10002D658, symSize: 0x44 }
  - { offset: 0x2B0C3, size: 0x8, addend: 0x0, symName: __ZNSt3__120__shared_ptr_emplaceI6sphereNS_9allocatorIS1_EEEC2B8ne180100IJ4vec3dRNS_10shared_ptrI5metalEEES3_Li0EEES3_DpOT_, symObjAddr: 0x2A328, symBinAddr: 0x10002D69C, symSize: 0xCC }
  - { offset: 0x2B16E, size: 0x8, addend: 0x0, symName: __ZNSt3__116allocator_traitsINS_9allocatorI6sphereEEE9constructB8ne180100IS2_J4vec3dRNS_10shared_ptrI5metalEEEvEEvRS3_PT_DpOT0_, symObjAddr: 0x2A3F4, symBinAddr: 0x10002D768, symSize: 0x44 }
  - { offset: 0x2B1ED, size: 0x8, addend: 0x0, symName: __ZNSt3__19allocatorI6sphereE9constructB8ne180100IS1_J4vec3dRNS_10shared_ptrI5metalEEEEEvPT_DpOT0_, symObjAddr: 0x2A438, symBinAddr: 0x10002D7AC, symSize: 0x98 }
  - { offset: 0x2B269, size: 0x8, addend: 0x0, symName: __ZNSt3__110shared_ptrI8materialEC1B8ne180100I5metalvEERKNS0_IT_EE, symObjAddr: 0x2A4D0, symBinAddr: 0x10002D844, symSize: 0x34 }
  - { offset: 0x2B2AC, size: 0x8, addend: 0x0, symName: __ZNSt3__110shared_ptrI8materialEC2B8ne180100I5metalvEERKNS0_IT_EE, symObjAddr: 0x2A504, symBinAddr: 0x10002D878, symSize: 0x70 }
  - { offset: 0x2B2EF, size: 0x8, addend: 0x0, symName: __ZNSt3__19allocatorI8bvh_nodeEC1B8ne180100Ev, symObjAddr: 0x2A60C, symBinAddr: 0x10002D980, symSize: 0x2C }
  - { offset: 0x2B365, size: 0x8, addend: 0x0, symName: __ZNSt3__118__allocation_guardINS_9allocatorINS_20__shared_ptr_emplaceI8bvh_nodeNS1_IS3_EEEEEEEC1B8ne180100IS4_EET_m, symObjAddr: 0x2A638, symBinAddr: 0x10002D9AC, symSize: 0x34 }
  - { offset: 0x2B3B4, size: 0x8, addend: 0x0, symName: __ZNKSt3__118__allocation_guardINS_9allocatorINS_20__shared_ptr_emplaceI8bvh_nodeNS1_IS3_EEEEEEE5__getB8ne180100Ev, symObjAddr: 0x2A66C, symBinAddr: 0x10002D9E0, symSize: 0x18 }
  - { offset: 0x2B3DA, size: 0x8, addend: 0x0, symName: __ZNSt3__120__shared_ptr_emplaceI8bvh_nodeNS_9allocatorIS1_EEEC1B8ne180100IJR13hittable_listES3_Li0EEES3_DpOT_, symObjAddr: 0x2A684, symBinAddr: 0x10002D9F8, symSize: 0x34 }
  - { offset: 0x2B43C, size: 0x8, addend: 0x0, symName: __ZNSt3__118__allocation_guardINS_9allocatorINS_20__shared_ptr_emplaceI8bvh_nodeNS1_IS3_EEEEEEE13__release_ptrB8ne180100Ev, symObjAddr: 0x2A6B8, symBinAddr: 0x10002DA2C, symSize: 0x24 }
  - { offset: 0x2B470, size: 0x8, addend: 0x0, symName: __ZNSt3__110shared_ptrI8bvh_nodeE27__create_with_control_blockB8ne180100IS1_NS_20__shared_ptr_emplaceIS1_NS_9allocatorIS1_EEEEEES2_PT_PT0_, symObjAddr: 0x2A6DC, symBinAddr: 0x10002DA50, symSize: 0xA4 }
  - { offset: 0x2B4C5, size: 0x8, addend: 0x0, symName: __ZNSt3__120__shared_ptr_emplaceI8bvh_nodeNS_9allocatorIS1_EEE10__get_elemB8ne180100Ev, symObjAddr: 0x2A780, symBinAddr: 0x10002DAF4, symSize: 0x28 }
  - { offset: 0x2B4EB, size: 0x8, addend: 0x0, symName: __ZNSt3__118__allocation_guardINS_9allocatorINS_20__shared_ptr_emplaceI8bvh_nodeNS1_IS3_EEEEEEED1B8ne180100Ev, symObjAddr: 0x2A7A8, symBinAddr: 0x10002DB1C, symSize: 0x2C }
  - { offset: 0x2B515, size: 0x8, addend: 0x0, symName: __ZNSt3__118__allocation_guardINS_9allocatorINS_20__shared_ptr_emplaceI8bvh_nodeNS1_IS3_EEEEEEEC2B8ne180100IS4_EET_m, symObjAddr: 0x2A7D4, symBinAddr: 0x10002DB48, symSize: 0x50 }
  - { offset: 0x2B564, size: 0x8, addend: 0x0, symName: __ZNSt3__19allocatorINS_20__shared_ptr_emplaceI8bvh_nodeNS0_IS2_EEEEEC1B8ne180100IS2_EERKNS0_IT_EE, symObjAddr: 0x2A824, symBinAddr: 0x10002DB98, symSize: 0x34 }
  - { offset: 0x2B5A2, size: 0x8, addend: 0x0, symName: __ZNSt3__116allocator_traitsINS_9allocatorINS_20__shared_ptr_emplaceI8bvh_nodeNS1_IS3_EEEEEEE8allocateB8ne180100ERS6_m, symObjAddr: 0x2A858, symBinAddr: 0x10002DBCC, symSize: 0x2C }
  - { offset: 0x2B5D5, size: 0x8, addend: 0x0, symName: __ZNSt3__19allocatorINS_20__shared_ptr_emplaceI8bvh_nodeNS0_IS2_EEEEEC2B8ne180100IS2_EERKNS0_IT_EE, symObjAddr: 0x2A884, symBinAddr: 0x10002DBF8, symSize: 0x30 }
  - { offset: 0x2B613, size: 0x8, addend: 0x0, symName: __ZNSt3__116__non_trivial_ifILb1ENS_9allocatorINS_20__shared_ptr_emplaceI8bvh_nodeNS1_IS3_EEEEEEEC2B8ne180100Ev, symObjAddr: 0x2A8B4, symBinAddr: 0x10002DC28, symSize: 0x14 }
  - { offset: 0x2B63D, size: 0x8, addend: 0x0, symName: __ZNSt3__19allocatorINS_20__shared_ptr_emplaceI8bvh_nodeNS0_IS2_EEEEE8allocateB8ne180100Em, symObjAddr: 0x2A8C8, symBinAddr: 0x10002DC3C, symSize: 0x5C }
  - { offset: 0x2B67B, size: 0x8, addend: 0x0, symName: __ZNSt3__116allocator_traitsINS_9allocatorINS_20__shared_ptr_emplaceI8bvh_nodeNS1_IS3_EEEEEEE8max_sizeB8ne180100IS6_vEEmRKS6_, symObjAddr: 0x2A924, symBinAddr: 0x10002DC98, symSize: 0x24 }
  - { offset: 0x2B6A9, size: 0x8, addend: 0x0, symName: __ZNKSt3__19allocatorINS_20__shared_ptr_emplaceI8bvh_nodeNS0_IS2_EEEEE8max_sizeB8ne180100Ev, symObjAddr: 0x2A948, symBinAddr: 0x10002DCBC, symSize: 0x20 }
  - { offset: 0x2B6CF, size: 0x8, addend: 0x0, symName: __ZNSt3__120__shared_ptr_emplaceI8bvh_nodeNS_9allocatorIS1_EEEC2B8ne180100IJR13hittable_listES3_Li0EEES3_DpOT_, symObjAddr: 0x2A968, symBinAddr: 0x10002DCDC, symSize: 0xBC }
  - { offset: 0x2B752, size: 0x8, addend: 0x0, symName: __ZNSt3__120__shared_ptr_emplaceI8bvh_nodeNS_9allocatorIS1_EEE8_StorageC1B8ne180100EOS3_, symObjAddr: 0x2AA24, symBinAddr: 0x10002DD98, symSize: 0x34 }
  - { offset: 0x2B78B, size: 0x8, addend: 0x0, symName: __ZNSt3__120__shared_ptr_emplaceI8bvh_nodeNS_9allocatorIS1_EEE11__get_allocB8ne180100Ev, symObjAddr: 0x2AA58, symBinAddr: 0x10002DDCC, symSize: 0x28 }
  - { offset: 0x2B7B6, size: 0x8, addend: 0x0, symName: __ZNSt3__116allocator_traitsINS_9allocatorI8bvh_nodeEEE9constructB8ne180100IS2_JR13hittable_listEvEEvRS3_PT_DpOT0_, symObjAddr: 0x2AA80, symBinAddr: 0x10002DDF4, symSize: 0x34 }
  - { offset: 0x2B80D, size: 0x8, addend: 0x0, symName: __ZNSt3__120__shared_ptr_emplaceI8bvh_nodeNS_9allocatorIS1_EEE8_StorageD1B8ne180100Ev, symObjAddr: 0x2AAB4, symBinAddr: 0x10002DE28, symSize: 0x2C }
  - { offset: 0x2B837, size: 0x8, addend: 0x0, symName: __ZNSt3__120__shared_ptr_emplaceI8bvh_nodeNS_9allocatorIS1_EEED1Ev, symObjAddr: 0x2AAE0, symBinAddr: 0x10002DE54, symSize: 0x2C }
  - { offset: 0x2B863, size: 0x8, addend: 0x0, symName: __ZNSt3__120__shared_ptr_emplaceI8bvh_nodeNS_9allocatorIS1_EEED0Ev, symObjAddr: 0x2AB0C, symBinAddr: 0x10002DE80, symSize: 0x30 }
  - { offset: 0x2B88F, size: 0x8, addend: 0x0, symName: __ZNSt3__120__shared_ptr_emplaceI8bvh_nodeNS_9allocatorIS1_EEE16__on_zero_sharedEv, symObjAddr: 0x2AB3C, symBinAddr: 0x10002DEB0, symSize: 0x24 }
  - { offset: 0x2B8B5, size: 0x8, addend: 0x0, symName: __ZNSt3__120__shared_ptr_emplaceI8bvh_nodeNS_9allocatorIS1_EEE21__on_zero_shared_weakEv, symObjAddr: 0x2AB60, symBinAddr: 0x10002DED4, symSize: 0x5C }
  - { offset: 0x2B8F6, size: 0x8, addend: 0x0, symName: __ZNSt3__120__shared_ptr_emplaceI8bvh_nodeNS_9allocatorIS1_EEE8_StorageC2B8ne180100EOS3_, symObjAddr: 0x2ABBC, symBinAddr: 0x10002DF30, symSize: 0x30 }
  - { offset: 0x2B92F, size: 0x8, addend: 0x0, symName: __ZNSt3__120__shared_ptr_emplaceI8bvh_nodeNS_9allocatorIS1_EEE8_Storage11__get_allocB8ne180100Ev, symObjAddr: 0x2ABEC, symBinAddr: 0x10002DF60, symSize: 0x3C }
  - { offset: 0x2B982, size: 0x8, addend: 0x0, symName: __ZNSt3__117__compressed_pairINS_9allocatorI8bvh_nodeEES2_E16__get_first_baseB8ne180100EPS4_, symObjAddr: 0x2AC28, symBinAddr: 0x10002DF9C, symSize: 0x14 }
  - { offset: 0x2B9A5, size: 0x8, addend: 0x0, symName: __ZNSt3__19allocatorI8bvh_nodeE9constructB8ne180100IS1_JR13hittable_listEEEvPT_DpOT0_, symObjAddr: 0x2AC3C, symBinAddr: 0x10002DFB0, symSize: 0x74 }
  - { offset: 0x2BA00, size: 0x8, addend: 0x0, symName: __ZN13hittable_listC1ERKS_, symObjAddr: 0x2ACB0, symBinAddr: 0x10002E024, symSize: 0x34 }
  - { offset: 0x2BA35, size: 0x8, addend: 0x0, symName: __ZN8bvh_nodeC1E13hittable_list, symObjAddr: 0x2ACE4, symBinAddr: 0x10002E058, symSize: 0x50 }
  - { offset: 0x2BA6E, size: 0x8, addend: 0x0, symName: __ZN13hittable_listC2ERKS_, symObjAddr: 0x2AD34, symBinAddr: 0x10002E0A8, symSize: 0x98 }
  - { offset: 0x2BAA3, size: 0x8, addend: 0x0, symName: __ZN8hittableC2ERKS_, symObjAddr: 0x2ADCC, symBinAddr: 0x10002E140, symSize: 0x28 }
  - { offset: 0x2BAD8, size: 0x8, addend: 0x0, symName: __ZNSt3__16vectorINS_10shared_ptrI8hittableEENS_9allocatorIS3_EEEC1ERKS6_, symObjAddr: 0x2ADF4, symBinAddr: 0x10002E168, symSize: 0x34 }
  - { offset: 0x2BB13, size: 0x8, addend: 0x0, symName: __ZNSt3__16vectorINS_10shared_ptrI8hittableEENS_9allocatorIS3_EEEC2ERKS6_, symObjAddr: 0x2AE28, symBinAddr: 0x10002E19C, symSize: 0x94 }
  - { offset: 0x2BB4E, size: 0x8, addend: 0x0, symName: __ZNSt3__116allocator_traitsINS_9allocatorINS_10shared_ptrI8hittableEEEEE37select_on_container_copy_constructionB8ne180100IS5_vvEES5_RKS5_, symObjAddr: 0x2AEBC, symBinAddr: 0x10002E230, symSize: 0x10 }
  - { offset: 0x2BB83, size: 0x8, addend: 0x0, symName: __ZNSt3__117__compressed_pairIPNS_10shared_ptrI8hittableEENS_9allocatorIS3_EEEC1B8ne180100IDnS6_EEOT_OT0_, symObjAddr: 0x2AECC, symBinAddr: 0x10002E240, symSize: 0x3C }
  - { offset: 0x2BBDB, size: 0x8, addend: 0x0, symName: __ZNSt3__16vectorINS_10shared_ptrI8hittableEENS_9allocatorIS3_EEE16__init_with_sizeB8ne180100IPS3_S8_EEvT_T0_m, symObjAddr: 0x2AF08, symBinAddr: 0x10002E27C, symSize: 0xB8 }
  - { offset: 0x2BC4F, size: 0x8, addend: 0x0, symName: __ZNSt3__117__compressed_pairIPNS_10shared_ptrI8hittableEENS_9allocatorIS3_EEEC2B8ne180100IDnS6_EEOT_OT0_, symObjAddr: 0x2AFC0, symBinAddr: 0x10002E334, symSize: 0x44 }
  - { offset: 0x2BCA7, size: 0x8, addend: 0x0, symName: __ZNSt3__122__compressed_pair_elemINS_9allocatorINS_10shared_ptrI8hittableEEEELi1ELb1EEC2B8ne180100IS5_vEEOT_, symObjAddr: 0x2B004, symBinAddr: 0x10002E378, symSize: 0x18 }
  - { offset: 0x2BCE9, size: 0x8, addend: 0x0, symName: __ZNSt3__16vectorINS_10shared_ptrI8hittableEENS_9allocatorIS3_EEE11__vallocateB8ne180100Em, symObjAddr: 0x2B05C, symBinAddr: 0x10002E3D0, symSize: 0xAC }
  - { offset: 0x2BD2D, size: 0x8, addend: 0x0, symName: __ZNSt3__16vectorINS_10shared_ptrI8hittableEENS_9allocatorIS3_EEE18__construct_at_endIPS3_S8_EEvT_T0_m, symObjAddr: 0x2B108, symBinAddr: 0x10002E47C, symSize: 0x8C }
  - { offset: 0x2BDA3, size: 0x8, addend: 0x0, symName: __ZNSt3__128__exception_guard_exceptionsINS_6vectorINS_10shared_ptrI8hittableEENS_9allocatorIS4_EEE16__destroy_vectorEE10__completeB8ne180100Ev, symObjAddr: 0x2B194, symBinAddr: 0x10002E508, symSize: 0x1C }
  - { offset: 0x2BDC9, size: 0x8, addend: 0x0, symName: __ZNSt3__128__exception_guard_exceptionsINS_6vectorINS_10shared_ptrI8hittableEENS_9allocatorIS4_EEE16__destroy_vectorEED1B8ne180100Ev, symObjAddr: 0x2B1B0, symBinAddr: 0x10002E524, symSize: 0x2C }
  - { offset: 0x2BDF3, size: 0x8, addend: 0x0, symName: __ZNSt3__128__exception_guard_exceptionsINS_6vectorINS_10shared_ptrI8hittableEENS_9allocatorIS4_EEE16__destroy_vectorEEC1B8ne180100ES8_, symObjAddr: 0x2B1DC, symBinAddr: 0x10002E550, symSize: 0x34 }
  - { offset: 0x2BE2B, size: 0x8, addend: 0x0, symName: __ZNSt3__128__exception_guard_exceptionsINS_6vectorINS_10shared_ptrI8hittableEENS_9allocatorIS4_EEE16__destroy_vectorEEC2B8ne180100ES8_, symObjAddr: 0x2B210, symBinAddr: 0x10002E584, symSize: 0x24 }
  - { offset: 0x2BE83, size: 0x8, addend: 0x0, symName: __ZNSt3__14pairIPNS_10shared_ptrI8hittableEES4_EC1B8ne180100IS4_S4_Li0EEEOT_OT0_, symObjAddr: 0x2B4A0, symBinAddr: 0x10002E814, symSize: 0x3C }
  - { offset: 0x2BEE1, size: 0x8, addend: 0x0, symName: __ZNSt3__14pairIPNS_10shared_ptrI8hittableEES4_EC2B8ne180100IS4_S4_Li0EEEOT_OT0_, symObjAddr: 0x2B4DC, symBinAddr: 0x10002E850, symSize: 0x34 }
  - { offset: 0x2BF3F, size: 0x8, addend: 0x0, symName: __ZNSt3__129_AllocatorDestroyRangeReverseINS_9allocatorINS_10shared_ptrI8hittableEEEEPS4_EC1B8ne180100ERS5_RS6_S9_, symObjAddr: 0x2B55C, symBinAddr: 0x10002E8D0, symSize: 0x44 }
  - { offset: 0x2BF96, size: 0x8, addend: 0x0, symName: __ZNSt3__116allocator_traitsINS_9allocatorINS_10shared_ptrI8hittableEEEEE9constructB8ne180100IS4_JRS4_EvEEvRS5_PT_DpOT0_, symObjAddr: 0x2B5A0, symBinAddr: 0x10002E914, symSize: 0x34 }
  - { offset: 0x2BFED, size: 0x8, addend: 0x0, symName: __ZNSt3__128__exception_guard_exceptionsINS_29_AllocatorDestroyRangeReverseINS_9allocatorINS_10shared_ptrI8hittableEEEEPS5_EEE10__completeB8ne180100Ev, symObjAddr: 0x2B5D4, symBinAddr: 0x10002E948, symSize: 0x1C }
  - { offset: 0x2C013, size: 0x8, addend: 0x0, symName: __ZNSt3__128__exception_guard_exceptionsINS_29_AllocatorDestroyRangeReverseINS_9allocatorINS_10shared_ptrI8hittableEEEEPS5_EEED1B8ne180100Ev, symObjAddr: 0x2B5F0, symBinAddr: 0x10002E964, symSize: 0x2C }
  - { offset: 0x2C03D, size: 0x8, addend: 0x0, symName: __ZNSt3__128__exception_guard_exceptionsINS_29_AllocatorDestroyRangeReverseINS_9allocatorINS_10shared_ptrI8hittableEEEEPS5_EEEC1B8ne180100ES8_, symObjAddr: 0x2B61C, symBinAddr: 0x10002E990, symSize: 0x34 }
  - { offset: 0x2C076, size: 0x8, addend: 0x0, symName: __ZNSt3__128__exception_guard_exceptionsINS_29_AllocatorDestroyRangeReverseINS_9allocatorINS_10shared_ptrI8hittableEEEEPS5_EEEC2B8ne180100ES8_, symObjAddr: 0x2B650, symBinAddr: 0x10002E9C4, symSize: 0x30 }
  - { offset: 0x2C0AF, size: 0x8, addend: 0x0, symName: __ZNSt3__129_AllocatorDestroyRangeReverseINS_9allocatorINS_10shared_ptrI8hittableEEEEPS4_EC2B8ne180100ERS5_RS6_S9_, symObjAddr: 0x2B680, symBinAddr: 0x10002E9F4, symSize: 0x38 }
  - { offset: 0x2C106, size: 0x8, addend: 0x0, symName: __ZNSt3__19allocatorINS_10shared_ptrI8hittableEEE9constructB8ne180100IS3_JRS3_EEEvPT_DpOT0_, symObjAddr: 0x2B6B8, symBinAddr: 0x10002EA2C, symSize: 0x30 }
  - { offset: 0x2C15C, size: 0x8, addend: 0x0, symName: __ZNSt3__128__exception_guard_exceptionsINS_29_AllocatorDestroyRangeReverseINS_9allocatorINS_10shared_ptrI8hittableEEEEPS5_EEED2B8ne180100Ev, symObjAddr: 0x2B6E8, symBinAddr: 0x10002EA5C, symSize: 0x50 }
  - { offset: 0x2C186, size: 0x8, addend: 0x0, symName: __ZNKSt3__129_AllocatorDestroyRangeReverseINS_9allocatorINS_10shared_ptrI8hittableEEEEPS4_EclB8ne180100Ev, symObjAddr: 0x2B738, symBinAddr: 0x10002EAAC, symSize: 0x68 }
  - { offset: 0x2C1AC, size: 0x8, addend: 0x0, symName: __ZNSt3__118__unwrap_iter_implIPNS_10shared_ptrI8hittableEELb1EE8__unwrapB8ne180100ES4_, symObjAddr: 0x2B810, symBinAddr: 0x10002EB84, symSize: 0x24 }
  - { offset: 0x2C1CF, size: 0x8, addend: 0x0, symName: __ZNSt3__118__unwrap_iter_implIPNS_10shared_ptrI8hittableEELb1EE8__rewrapB8ne180100ES4_S4_, symObjAddr: 0x2B834, symBinAddr: 0x10002EBA8, symSize: 0x50 }
  - { offset: 0x2C200, size: 0x8, addend: 0x0, symName: __ZNSt3__128__exception_guard_exceptionsINS_6vectorINS_10shared_ptrI8hittableEENS_9allocatorIS4_EEE16__destroy_vectorEED2B8ne180100Ev, symObjAddr: 0x2B884, symBinAddr: 0x10002EBF8, symSize: 0x48 }
  - { offset: 0x2C22A, size: 0x8, addend: 0x0, symName: __ZN8bvh_nodeC1ERNSt3__16vectorINS0_10shared_ptrI8hittableEENS0_9allocatorIS4_EEEEmm, symObjAddr: 0x2B8CC, symBinAddr: 0x10002EC40, symSize: 0x44 }
  - { offset: 0x2C27E, size: 0x8, addend: 0x0, symName: __ZN8bvh_nodeC2ERNSt3__16vectorINS0_10shared_ptrI8hittableEENS0_9allocatorIS4_EEEEmm, symObjAddr: 0x2B910, symBinAddr: 0x10002EC84, symSize: 0x3B0 }
  - { offset: 0x2C33F, size: 0x8, addend: 0x0, symName: __ZNSt3__110shared_ptrI8hittableEC1B8ne180100Ev, symObjAddr: 0x2BCC0, symBinAddr: 0x10002F034, symSize: 0x2C }
  - { offset: 0x2C369, size: 0x8, addend: 0x0, symName: __ZNSt3__16vectorINS_10shared_ptrI8hittableEENS_9allocatorIS3_EEEixB8ne180100Em, symObjAddr: 0x2BCEC, symBinAddr: 0x10002F060, symSize: 0x24 }
  - { offset: 0x2C3A0, size: 0x8, addend: 0x0, symName: __ZNK4aabb12longest_axisEv, symObjAddr: 0x2BD10, symBinAddr: 0x10002F084, symSize: 0xDC }
  - { offset: 0x2C3C6, size: 0x8, addend: 0x0, symName: __ZN8bvh_node13box_x_compareENSt3__110shared_ptrI8hittableEES3_, symObjAddr: 0x2BDEC, symBinAddr: 0x10002F160, symSize: 0xA8 }
  - { offset: 0x2C3F9, size: 0x8, addend: 0x0, symName: __ZN8bvh_node13box_y_compareENSt3__110shared_ptrI8hittableEES3_, symObjAddr: 0x2BE94, symBinAddr: 0x10002F208, symSize: 0xA8 }
  - { offset: 0x2C42C, size: 0x8, addend: 0x0, symName: __ZN8bvh_node13box_z_compareENSt3__110shared_ptrI8hittableEES3_, symObjAddr: 0x2BF3C, symBinAddr: 0x10002F2B0, symSize: 0xA8 }
  - { offset: 0x2C45F, size: 0x8, addend: 0x0, symName: __ZNSt3__110shared_ptrI8hittableEaSB8ne180100ERKS2_, symObjAddr: 0x2BFE4, symBinAddr: 0x10002F358, symSize: 0x50 }
  - { offset: 0x2C494, size: 0x8, addend: 0x0, symName: __ZNKSt3__111__wrap_iterIPNS_10shared_ptrI8hittableEEEplB8ne180100El, symObjAddr: 0x2C0A8, symBinAddr: 0x10002F41C, symSize: 0x3C }
  - { offset: 0x2C4D6, size: 0x8, addend: 0x0, symName: __ZNSt3__110shared_ptrI8hittableEaSB8ne180100I8bvh_nodevEERS2_ONS0_IT_EE, symObjAddr: 0x2C134, symBinAddr: 0x10002F4A8, symSize: 0x50 }
  - { offset: 0x2C515, size: 0x8, addend: 0x0, symName: __ZN8bvh_nodeD1Ev, symObjAddr: 0x2C184, symBinAddr: 0x10002F4F8, symSize: 0x2C }
  - { offset: 0x2C541, size: 0x8, addend: 0x0, symName: __ZN8bvh_nodeD0Ev, symObjAddr: 0x2C1B0, symBinAddr: 0x10002F524, symSize: 0x30 }
  - { offset: 0x2C56D, size: 0x8, addend: 0x0, symName: __ZNK8bvh_node3hitERK3ray8intervalR10hit_record, symObjAddr: 0x2C1E0, symBinAddr: 0x10002F554, symSize: 0x168 }
  - { offset: 0x2C5DB, size: 0x8, addend: 0x0, symName: __ZNK8bvh_node12bounding_boxEv, symObjAddr: 0x2C348, symBinAddr: 0x10002F6BC, symSize: 0x38 }
  - { offset: 0x2C601, size: 0x8, addend: 0x0, symName: __ZNSt3__110shared_ptrI8hittableEC2B8ne180100Ev, symObjAddr: 0x2C380, symBinAddr: 0x10002F6F4, symSize: 0x1C }
  - { offset: 0x2C62B, size: 0x8, addend: 0x0, symName: __ZN8bvh_node11box_compareENSt3__110shared_ptrI8hittableEES3_i, symObjAddr: 0x2C39C, symBinAddr: 0x10002F710, symSize: 0xA0 }
  - { offset: 0x2C689, size: 0x8, addend: 0x0, symName: __ZNK4aabb13axis_intervalEi, symObjAddr: 0x2C43C, symBinAddr: 0x10002F7B0, symSize: 0x74 }
  - { offset: 0x2C6BD, size: 0x8, addend: 0x0, symName: __ZNSt3__110shared_ptrI8hittableE4swapB8ne180100ERS2_, symObjAddr: 0x2C4B0, symBinAddr: 0x10002F824, symSize: 0x44 }
  - { offset: 0x2C6F2, size: 0x8, addend: 0x0, symName: __ZNSt3__18_IterOpsINS_17_ClassicAlgPolicyEE9iter_swapB8ne180100IRPNS_10shared_ptrI8hittableEES8_EEvOT_OT0_, symObjAddr: 0x2CD54, symBinAddr: 0x1000300C8, symSize: 0x34 }
  - { offset: 0x2C735, size: 0x8, addend: 0x0, symName: __ZNSt3__18_IterOpsINS_17_ClassicAlgPolicyEE9iter_swapB8ne180100IRPNS_10shared_ptrI8hittableEES7_EEvOT_OT0_, symObjAddr: 0x2D784, symBinAddr: 0x100030AF8, symSize: 0x34 }
  - { offset: 0x2C77E, size: 0x8, addend: 0x0, symName: __ZNSt3__18_IterOpsINS_17_ClassicAlgPolicyEE11__iter_moveB8ne180100IRPNS_10shared_ptrI8hittableEELi0EEEDTclsr3stdE4movedeclsr3stdE7declvalIRT_EEEEOS9_, symObjAddr: 0x2F1FC, symBinAddr: 0x100032570, symSize: 0x28 }
  - { offset: 0x2C7B0, size: 0x8, addend: 0x0, symName: __ZNSt3__110shared_ptrI8hittableEaSB8ne180100EOS2_, symObjAddr: 0x2F224, symBinAddr: 0x100032598, symSize: 0x50 }
  - { offset: 0x2C7E5, size: 0x8, addend: 0x0, symName: __ZNSt3__18_IterOpsINS_17_ClassicAlgPolicyEE25__validate_iter_referenceB8ne180100IRPNS_10shared_ptrI8hittableEEEEvv, symObjAddr: 0x2F274, symBinAddr: 0x1000325E8, symSize: 0x4 }
  - { offset: 0x2C803, size: 0x8, addend: 0x0, symName: __ZNSt3__18_IterOpsINS_17_ClassicAlgPolicyEE4nextB8ne180100IPNS_10shared_ptrI8hittableEEEET_S8_S8_, symObjAddr: 0x2F278, symBinAddr: 0x1000325EC, symSize: 0x18 }
  - { offset: 0x2C83A, size: 0x8, addend: 0x0, symName: __ZNSt3__18_IterOpsINS_17_ClassicAlgPolicyEE9iter_swapB8ne180100IPNS_10shared_ptrI8hittableEES7_EEvOT_OT0_, symObjAddr: 0x3099C, symBinAddr: 0x100033D10, symSize: 0x34 }
  - { offset: 0x2C89C, size: 0x8, addend: 0x0, symName: __ZNSt3__14pairIPNS_10shared_ptrI8hittableEEbEC1B8ne180100IRS4_RbLi0EEEOT_OT0_, symObjAddr: 0x309EC, symBinAddr: 0x100033D60, symSize: 0x3C }
  - { offset: 0x2C8FA, size: 0x8, addend: 0x0, symName: __ZNSt3__14pairIPNS_10shared_ptrI8hittableEEbEC2B8ne180100IRS4_RbLi0EEEOT_OT0_, symObjAddr: 0x30A28, symBinAddr: 0x100033D9C, symSize: 0x38 }
  - { offset: 0x2C958, size: 0x8, addend: 0x0, symName: __ZNSt3__118__unwrap_iter_implINS_11__wrap_iterIPNS_10shared_ptrI8hittableEEEELb1EE8__unwrapB8ne180100ES6_, symObjAddr: 0x30A60, symBinAddr: 0x100033DD4, symSize: 0x28 }
  - { offset: 0x2C985, size: 0x8, addend: 0x0, symName: __ZNSt3__119__to_address_helperINS_11__wrap_iterIPNS_10shared_ptrI8hittableEEEEvE6__callB8ne180100ERKS6_, symObjAddr: 0x30AAC, symBinAddr: 0x100033E20, symSize: 0x30 }
  - { offset: 0x2C9A8, size: 0x8, addend: 0x0, symName: __ZNSt3__114pointer_traitsINS_11__wrap_iterIPNS_10shared_ptrI8hittableEEEEE10to_addressB8ne180100ES6_, symObjAddr: 0x30ADC, symBinAddr: 0x100033E50, symSize: 0x2C }
  - { offset: 0x2C9CB, size: 0x8, addend: 0x0, symName: __ZNKSt3__111__wrap_iterIPNS_10shared_ptrI8hittableEEE4baseB8ne180100Ev, symObjAddr: 0x30B08, symBinAddr: 0x100033E7C, symSize: 0x18 }
  - { offset: 0x2C9F1, size: 0x8, addend: 0x0, symName: __ZNSt3__16vectorINS_10shared_ptrI8hittableEENS_9allocatorIS3_EEE5beginB8ne180100Ev, symObjAddr: 0x30B20, symBinAddr: 0x100033E94, symSize: 0x30 }
  - { offset: 0x2CA19, size: 0x8, addend: 0x0, symName: __ZNSt3__16vectorINS_10shared_ptrI8hittableEENS_9allocatorIS3_EEE11__make_iterB8ne180100EPS3_, symObjAddr: 0x30B50, symBinAddr: 0x100033EC4, symSize: 0x30 }
  - { offset: 0x2CA4E, size: 0x8, addend: 0x0, symName: __ZNSt3__111__wrap_iterIPNS_10shared_ptrI8hittableEEEC1B8ne180100ES4_, symObjAddr: 0x30B80, symBinAddr: 0x100033EF4, symSize: 0x34 }
  - { offset: 0x2CA86, size: 0x8, addend: 0x0, symName: __ZNSt3__111__wrap_iterIPNS_10shared_ptrI8hittableEEEC2B8ne180100ES4_, symObjAddr: 0x30BB4, symBinAddr: 0x100033F28, symSize: 0x20 }
  - { offset: 0x2CABE, size: 0x8, addend: 0x0, symName: __ZNSt3__111__wrap_iterIPNS_10shared_ptrI8hittableEEEpLB8ne180100El, symObjAddr: 0x30BD4, symBinAddr: 0x100033F48, symSize: 0x28 }
  - { offset: 0x2CAF7, size: 0x8, addend: 0x0, symName: __ZNSt3__120__shared_ptr_emplaceI8bvh_nodeNS_9allocatorIS1_EEEC1B8ne180100IJRNS_6vectorINS_10shared_ptrI8hittableEENS2_IS9_EEEERmSD_ES3_Li0EEES3_DpOT_, symObjAddr: 0x30CA4, symBinAddr: 0x100034018, symSize: 0x44 }
  - { offset: 0x2CB81, size: 0x8, addend: 0x0, symName: __ZNSt3__120__shared_ptr_emplaceI8bvh_nodeNS_9allocatorIS1_EEEC2B8ne180100IJRNS_6vectorINS_10shared_ptrI8hittableEENS2_IS9_EEEERmSD_ES3_Li0EEES3_DpOT_, symObjAddr: 0x30CE8, symBinAddr: 0x10003405C, symSize: 0xCC }
  - { offset: 0x2CC2C, size: 0x8, addend: 0x0, symName: __ZNSt3__116allocator_traitsINS_9allocatorI8bvh_nodeEEE9constructB8ne180100IS2_JRNS_6vectorINS_10shared_ptrI8hittableEENS1_IS9_EEEERmSD_EvEEvRS3_PT_DpOT0_, symObjAddr: 0x30DB4, symBinAddr: 0x100034128, symSize: 0x44 }
  - { offset: 0x2CCAB, size: 0x8, addend: 0x0, symName: __ZNSt3__19allocatorI8bvh_nodeE9constructB8ne180100IS1_JRNS_6vectorINS_10shared_ptrI8hittableEENS0_IS7_EEEERmSB_EEEvPT_DpOT0_, symObjAddr: 0x30DF8, symBinAddr: 0x10003416C, symSize: 0x48 }
  - { offset: 0x2CD27, size: 0x8, addend: 0x0, symName: __ZN8bvh_nodeD2Ev, symObjAddr: 0x30E40, symBinAddr: 0x1000341B4, symSize: 0x54 }
  - { offset: 0x2CD53, size: 0x8, addend: 0x0, symName: __ZNK4aabb3hitERK3ray8interval, symObjAddr: 0x30E94, symBinAddr: 0x100034208, symSize: 0x1FC }
  - { offset: 0x2CE13, size: 0x8, addend: 0x0, symName: __ZNSt3__120__shared_ptr_emplaceI8bvh_nodeNS_9allocatorIS1_EEE8_StorageD2B8ne180100Ev, symObjAddr: 0x31090, symBinAddr: 0x100034404, symSize: 0x2C }
  - { offset: 0x2CE3D, size: 0x8, addend: 0x0, symName: __ZNSt3__120__shared_ptr_emplaceI8bvh_nodeNS_9allocatorIS1_EEED2Ev, symObjAddr: 0x310BC, symBinAddr: 0x100034430, symSize: 0x48 }
  - { offset: 0x2CE69, size: 0x8, addend: 0x0, symName: __ZNSt3__120__shared_ptr_emplaceI8bvh_nodeNS_9allocatorIS1_EEE21__on_zero_shared_implB8ne180100IS3_Li0EEEvv, symObjAddr: 0x31104, symBinAddr: 0x100034478, symSize: 0x44 }
  - { offset: 0x2CEB9, size: 0x8, addend: 0x0, symName: __ZNSt3__116allocator_traitsINS_9allocatorI8bvh_nodeEEE7destroyB8ne180100IS2_vEEvRS3_PT_, symObjAddr: 0x31148, symBinAddr: 0x1000344BC, symSize: 0x2C }
  - { offset: 0x2CEF6, size: 0x8, addend: 0x0, symName: __ZNSt3__19allocatorI8bvh_nodeE7destroyB8ne180100EPS1_, symObjAddr: 0x31174, symBinAddr: 0x1000344E8, symSize: 0x30 }
  - { offset: 0x2CF2A, size: 0x8, addend: 0x0, symName: __ZNSt3__116allocator_traitsINS_9allocatorINS_20__shared_ptr_emplaceI8bvh_nodeNS1_IS3_EEEEEEE10deallocateB8ne180100ERS6_PS5_m, symObjAddr: 0x311A4, symBinAddr: 0x100034518, symSize: 0x34 }
  - { offset: 0x2CF6C, size: 0x8, addend: 0x0, symName: __ZNSt3__114pointer_traitsIPNS_20__shared_ptr_emplaceI8bvh_nodeNS_9allocatorIS2_EEEEE10pointer_toB8ne180100ERS5_, symObjAddr: 0x311D8, symBinAddr: 0x10003454C, symSize: 0x14 }
  - { offset: 0x2CF8F, size: 0x8, addend: 0x0, symName: __ZNSt3__19allocatorINS_20__shared_ptr_emplaceI8bvh_nodeNS0_IS2_EEEEE10deallocateB8ne180100EPS4_m, symObjAddr: 0x311EC, symBinAddr: 0x100034560, symSize: 0x44 }
  - { offset: 0x2CFD1, size: 0x8, addend: 0x0, symName: __ZNSt3__110shared_ptrI8bvh_nodeEC1B8ne180100Ev, symObjAddr: 0x31230, symBinAddr: 0x1000345A4, symSize: 0x2C }
  - { offset: 0x2CFFB, size: 0x8, addend: 0x0, symName: __ZNSt3__110shared_ptrI8bvh_nodeE18__enable_weak_thisB8ne180100Ez, symObjAddr: 0x3125C, symBinAddr: 0x1000345D0, symSize: 0x10 }
  - { offset: 0x2D022, size: 0x8, addend: 0x0, symName: __ZNSt3__110shared_ptrI8bvh_nodeEC2B8ne180100Ev, symObjAddr: 0x3126C, symBinAddr: 0x1000345E0, symSize: 0x1C }
  - { offset: 0x2D04C, size: 0x8, addend: 0x0, symName: __ZNSt3__120__shared_ptr_emplaceI8bvh_nodeNS_9allocatorIS1_EEE8_Storage10__get_elemB8ne180100Ev, symObjAddr: 0x31288, symBinAddr: 0x1000345FC, symSize: 0x3C }
  - { offset: 0x2D09F, size: 0x8, addend: 0x0, symName: __ZNSt3__117__compressed_pairINS_9allocatorI8bvh_nodeEES2_E17__get_second_baseB8ne180100EPS4_, symObjAddr: 0x312C4, symBinAddr: 0x100034638, symSize: 0x14 }
  - { offset: 0x2D0C2, size: 0x8, addend: 0x0, symName: __ZNSt3__118__allocation_guardINS_9allocatorINS_20__shared_ptr_emplaceI8bvh_nodeNS1_IS3_EEEEEEED2B8ne180100Ev, symObjAddr: 0x312D8, symBinAddr: 0x10003464C, symSize: 0x2C }
  - { offset: 0x2D0EC, size: 0x8, addend: 0x0, symName: __ZNSt3__118__allocation_guardINS_9allocatorINS_20__shared_ptr_emplaceI8bvh_nodeNS1_IS3_EEEEEEE9__destroyB8ne180100Ev, symObjAddr: 0x31304, symBinAddr: 0x100034678, symSize: 0x4C }
  - { offset: 0x2D112, size: 0x8, addend: 0x0, symName: __ZNSt3__19allocatorI8bvh_nodeEC2B8ne180100Ev, symObjAddr: 0x31350, symBinAddr: 0x1000346C4, symSize: 0x2C }
  - { offset: 0x2D13C, size: 0x8, addend: 0x0, symName: __ZNSt3__116__non_trivial_ifILb1ENS_9allocatorI8bvh_nodeEEEC2B8ne180100Ev, symObjAddr: 0x3137C, symBinAddr: 0x1000346F0, symSize: 0x14 }
  - { offset: 0x2D166, size: 0x8, addend: 0x0, symName: __ZNSt3__110shared_ptrI8hittableEC2B8ne180100I8bvh_nodevEEONS0_IT_EE, symObjAddr: 0x31390, symBinAddr: 0x100034704, symSize: 0x40 }
  - { offset: 0x2D1A9, size: 0x8, addend: 0x0, symName: __ZNSt3__19allocatorI13image_textureEC1B8ne180100Ev, symObjAddr: 0x31468, symBinAddr: 0x1000347DC, symSize: 0x2C }
  - { offset: 0x2D21F, size: 0x8, addend: 0x0, symName: __ZNSt3__118__allocation_guardINS_9allocatorINS_20__shared_ptr_emplaceI13image_textureNS1_IS3_EEEEEEEC1B8ne180100IS4_EET_m, symObjAddr: 0x31494, symBinAddr: 0x100034808, symSize: 0x34 }
  - { offset: 0x2D26E, size: 0x8, addend: 0x0, symName: __ZNKSt3__118__allocation_guardINS_9allocatorINS_20__shared_ptr_emplaceI13image_textureNS1_IS3_EEEEEEE5__getB8ne180100Ev, symObjAddr: 0x314C8, symBinAddr: 0x10003483C, symSize: 0x18 }
  - { offset: 0x2D2AA, size: 0x8, addend: 0x0, symName: __ZNSt3__120__shared_ptr_emplaceI13image_textureNS_9allocatorIS1_EEEC1B8ne180100IJRA13_KcES3_Li0EEES3_DpOT_, symObjAddr: 0x314E0, symBinAddr: 0x100034854, symSize: 0x34 }
  - { offset: 0x2D30C, size: 0x8, addend: 0x0, symName: __ZNSt3__118__allocation_guardINS_9allocatorINS_20__shared_ptr_emplaceI13image_textureNS1_IS3_EEEEEEE13__release_ptrB8ne180100Ev, symObjAddr: 0x31514, symBinAddr: 0x100034888, symSize: 0x24 }
  - { offset: 0x2D340, size: 0x8, addend: 0x0, symName: __ZNSt3__110shared_ptrI13image_textureE27__create_with_control_blockB8ne180100IS1_NS_20__shared_ptr_emplaceIS1_NS_9allocatorIS1_EEEEEES2_PT_PT0_, symObjAddr: 0x31538, symBinAddr: 0x1000348AC, symSize: 0xA4 }
  - { offset: 0x2D395, size: 0x8, addend: 0x0, symName: __ZNSt3__120__shared_ptr_emplaceI13image_textureNS_9allocatorIS1_EEE10__get_elemB8ne180100Ev, symObjAddr: 0x315DC, symBinAddr: 0x100034950, symSize: 0x28 }
  - { offset: 0x2D3BB, size: 0x8, addend: 0x0, symName: __ZNSt3__118__allocation_guardINS_9allocatorINS_20__shared_ptr_emplaceI13image_textureNS1_IS3_EEEEEEED1B8ne180100Ev, symObjAddr: 0x31604, symBinAddr: 0x100034978, symSize: 0x2C }
  - { offset: 0x2D3E5, size: 0x8, addend: 0x0, symName: __ZNSt3__118__allocation_guardINS_9allocatorINS_20__shared_ptr_emplaceI13image_textureNS1_IS3_EEEEEEEC2B8ne180100IS4_EET_m, symObjAddr: 0x31630, symBinAddr: 0x1000349A4, symSize: 0x50 }
  - { offset: 0x2D434, size: 0x8, addend: 0x0, symName: __ZNSt3__19allocatorINS_20__shared_ptr_emplaceI13image_textureNS0_IS2_EEEEEC1B8ne180100IS2_EERKNS0_IT_EE, symObjAddr: 0x31680, symBinAddr: 0x1000349F4, symSize: 0x34 }
  - { offset: 0x2D472, size: 0x8, addend: 0x0, symName: __ZNSt3__116allocator_traitsINS_9allocatorINS_20__shared_ptr_emplaceI13image_textureNS1_IS3_EEEEEEE8allocateB8ne180100ERS6_m, symObjAddr: 0x316B4, symBinAddr: 0x100034A28, symSize: 0x2C }
  - { offset: 0x2D4A5, size: 0x8, addend: 0x0, symName: __ZNSt3__19allocatorINS_20__shared_ptr_emplaceI13image_textureNS0_IS2_EEEEEC2B8ne180100IS2_EERKNS0_IT_EE, symObjAddr: 0x316E0, symBinAddr: 0x100034A54, symSize: 0x30 }
  - { offset: 0x2D4E3, size: 0x8, addend: 0x0, symName: __ZNSt3__116__non_trivial_ifILb1ENS_9allocatorINS_20__shared_ptr_emplaceI13image_textureNS1_IS3_EEEEEEEC2B8ne180100Ev, symObjAddr: 0x31710, symBinAddr: 0x100034A84, symSize: 0x14 }
  - { offset: 0x2D50D, size: 0x8, addend: 0x0, symName: __ZNSt3__19allocatorINS_20__shared_ptr_emplaceI13image_textureNS0_IS2_EEEEE8allocateB8ne180100Em, symObjAddr: 0x31724, symBinAddr: 0x100034A98, symSize: 0x5C }
  - { offset: 0x2D54B, size: 0x8, addend: 0x0, symName: __ZNSt3__116allocator_traitsINS_9allocatorINS_20__shared_ptr_emplaceI13image_textureNS1_IS3_EEEEEEE8max_sizeB8ne180100IS6_vEEmRKS6_, symObjAddr: 0x31780, symBinAddr: 0x100034AF4, symSize: 0x24 }
  - { offset: 0x2D579, size: 0x8, addend: 0x0, symName: __ZNKSt3__19allocatorINS_20__shared_ptr_emplaceI13image_textureNS0_IS2_EEEEE8max_sizeB8ne180100Ev, symObjAddr: 0x317A4, symBinAddr: 0x100034B18, symSize: 0x20 }
  - { offset: 0x2D59F, size: 0x8, addend: 0x0, symName: __ZNSt3__120__shared_ptr_emplaceI13image_textureNS_9allocatorIS1_EEEC2B8ne180100IJRA13_KcES3_Li0EEES3_DpOT_, symObjAddr: 0x317C4, symBinAddr: 0x100034B38, symSize: 0xBC }
  - { offset: 0x2D622, size: 0x8, addend: 0x0, symName: __ZNSt3__120__shared_ptr_emplaceI13image_textureNS_9allocatorIS1_EEE8_StorageC1B8ne180100EOS3_, symObjAddr: 0x31880, symBinAddr: 0x100034BF4, symSize: 0x34 }
  - { offset: 0x2D65B, size: 0x8, addend: 0x0, symName: __ZNSt3__120__shared_ptr_emplaceI13image_textureNS_9allocatorIS1_EEE11__get_allocB8ne180100Ev, symObjAddr: 0x318B4, symBinAddr: 0x100034C28, symSize: 0x28 }
  - { offset: 0x2D686, size: 0x8, addend: 0x0, symName: __ZNSt3__116allocator_traitsINS_9allocatorI13image_textureEEE9constructB8ne180100IS2_JRA13_KcEvEEvRS3_PT_DpOT0_, symObjAddr: 0x318DC, symBinAddr: 0x100034C50, symSize: 0x34 }
  - { offset: 0x2D6DD, size: 0x8, addend: 0x0, symName: __ZNSt3__120__shared_ptr_emplaceI13image_textureNS_9allocatorIS1_EEE8_StorageD1B8ne180100Ev, symObjAddr: 0x31910, symBinAddr: 0x100034C84, symSize: 0x2C }
  - { offset: 0x2D707, size: 0x8, addend: 0x0, symName: __ZNSt3__120__shared_ptr_emplaceI13image_textureNS_9allocatorIS1_EEED1Ev, symObjAddr: 0x3193C, symBinAddr: 0x100034CB0, symSize: 0x2C }
  - { offset: 0x2D733, size: 0x8, addend: 0x0, symName: __ZNSt3__120__shared_ptr_emplaceI13image_textureNS_9allocatorIS1_EEED0Ev, symObjAddr: 0x31968, symBinAddr: 0x100034CDC, symSize: 0x30 }
  - { offset: 0x2D75F, size: 0x8, addend: 0x0, symName: __ZNSt3__120__shared_ptr_emplaceI13image_textureNS_9allocatorIS1_EEE16__on_zero_sharedEv, symObjAddr: 0x31998, symBinAddr: 0x100034D0C, symSize: 0x24 }
  - { offset: 0x2D785, size: 0x8, addend: 0x0, symName: __ZNSt3__120__shared_ptr_emplaceI13image_textureNS_9allocatorIS1_EEE21__on_zero_shared_weakEv, symObjAddr: 0x319BC, symBinAddr: 0x100034D30, symSize: 0x5C }
  - { offset: 0x2D7C6, size: 0x8, addend: 0x0, symName: __ZNSt3__120__shared_ptr_emplaceI13image_textureNS_9allocatorIS1_EEE8_StorageC2B8ne180100EOS3_, symObjAddr: 0x31A18, symBinAddr: 0x100034D8C, symSize: 0x30 }
  - { offset: 0x2D7FF, size: 0x8, addend: 0x0, symName: __ZNSt3__120__shared_ptr_emplaceI13image_textureNS_9allocatorIS1_EEE8_Storage11__get_allocB8ne180100Ev, symObjAddr: 0x31A48, symBinAddr: 0x100034DBC, symSize: 0x3C }
  - { offset: 0x2D852, size: 0x8, addend: 0x0, symName: __ZNSt3__117__compressed_pairINS_9allocatorI13image_textureEES2_E16__get_first_baseB8ne180100EPS4_, symObjAddr: 0x31A84, symBinAddr: 0x100034DF8, symSize: 0x14 }
  - { offset: 0x2D875, size: 0x8, addend: 0x0, symName: __ZNSt3__19allocatorI13image_textureE9constructB8ne180100IS1_JRA13_KcEEEvPT_DpOT0_, symObjAddr: 0x31A98, symBinAddr: 0x100034E0C, symSize: 0x30 }
  - { offset: 0x2D8CB, size: 0x8, addend: 0x0, symName: __ZN13image_textureC1EPKc, symObjAddr: 0x31AC8, symBinAddr: 0x100034E3C, symSize: 0x34 }
  - { offset: 0x2D903, size: 0x8, addend: 0x0, symName: __ZN13image_textureC2EPKc, symObjAddr: 0x31AFC, symBinAddr: 0x100034E70, symSize: 0x78 }
  - { offset: 0x2D93B, size: 0x8, addend: 0x0, symName: __ZN9rtw_imageC1EPKc, symObjAddr: 0x31B74, symBinAddr: 0x100034EE8, symSize: 0x34 }
  - { offset: 0x2D973, size: 0x8, addend: 0x0, symName: __ZN13image_textureD1Ev, symObjAddr: 0x31BA8, symBinAddr: 0x100034F1C, symSize: 0x2C }
  - { offset: 0x2D99F, size: 0x8, addend: 0x0, symName: __ZN13image_textureD0Ev, symObjAddr: 0x31BD4, symBinAddr: 0x100034F48, symSize: 0x30 }
  - { offset: 0x2D9CB, size: 0x8, addend: 0x0, symName: __ZNK13image_texture5valueEddRK4vec3, symObjAddr: 0x31C04, symBinAddr: 0x100034F78, symSize: 0x188 }
  - { offset: 0x2DA57, size: 0x8, addend: 0x0, symName: __ZN9rtw_imageC2EPKc, symObjAddr: 0x31D8C, symBinAddr: 0x100035100, symSize: 0x59C }
  - { offset: 0x2DABF, size: 0x8, addend: 0x0, symName: __ZNSt3__112basic_stringIcNS_11char_traitsIcEENS_9allocatorIcEEEC1B8ne180100ILi0EEEPKc, symObjAddr: 0x32328, symBinAddr: 0x10003569C, symSize: 0x34 }
  - { offset: 0x2DAFE, size: 0x8, addend: 0x0, symName: __ZN9rtw_image4loadERKNSt3__112basic_stringIcNS0_11char_traitsIcEENS0_9allocatorIcEEEE, symObjAddr: 0x3235C, symBinAddr: 0x1000356D0, symSize: 0xBC }
  - { offset: 0x2DB40, size: 0x8, addend: 0x0, symName: __ZNSt3__112basic_stringIcNS_11char_traitsIcEENS_9allocatorIcEEEC2B8ne180100ILi0EEEPKc, symObjAddr: 0x32458, symBinAddr: 0x1000357CC, symSize: 0x58 }
  - { offset: 0x2DB7F, size: 0x8, addend: 0x0, symName: __ZNKSt3__112basic_stringIcNS_11char_traitsIcEENS_9allocatorIcEEE5c_strB8ne180100Ev, symObjAddr: 0x324B0, symBinAddr: 0x100035824, symSize: 0x24 }
  - { offset: 0x2DBA5, size: 0x8, addend: 0x0, symName: __ZN9rtw_image16convert_to_bytesEv, symObjAddr: 0x324D4, symBinAddr: 0x100035848, symSize: 0xBC }
  - { offset: 0x2DC11, size: 0x8, addend: 0x0, symName: __ZNKSt3__112basic_stringIcNS_11char_traitsIcEENS_9allocatorIcEEE4dataB8ne180100Ev, symObjAddr: 0x32590, symBinAddr: 0x100035904, symSize: 0x28 }
  - { offset: 0x2DC37, size: 0x8, addend: 0x0, symName: __ZNKSt3__112basic_stringIcNS_11char_traitsIcEENS_9allocatorIcEEE13__get_pointerB8ne180100Ev, symObjAddr: 0x325CC, symBinAddr: 0x100035940, symSize: 0x54 }
  - { offset: 0x2DC5D, size: 0x8, addend: 0x0, symName: __ZNKSt3__112basic_stringIcNS_11char_traitsIcEENS_9allocatorIcEEE18__get_long_pointerB8ne180100Ev, symObjAddr: 0x32620, symBinAddr: 0x100035994, symSize: 0x28 }
  - { offset: 0x2DC83, size: 0x8, addend: 0x0, symName: __ZNKSt3__112basic_stringIcNS_11char_traitsIcEENS_9allocatorIcEEE19__get_short_pointerB8ne180100Ev, symObjAddr: 0x32648, symBinAddr: 0x1000359BC, symSize: 0x28 }
  - { offset: 0x2DCA9, size: 0x8, addend: 0x0, symName: __ZNSt3__114pointer_traitsIPKcE10pointer_toB8ne180100ERS1_, symObjAddr: 0x32670, symBinAddr: 0x1000359E4, symSize: 0x14 }
  - { offset: 0x2DCCC, size: 0x8, addend: 0x0, symName: __ZN9rtw_image13float_to_byteEf, symObjAddr: 0x32684, symBinAddr: 0x1000359F8, symSize: 0x7C }
  - { offset: 0x2DCEF, size: 0x8, addend: 0x0, symName: __ZNSt3__112basic_stringIcNS_11char_traitsIcEENS_9allocatorIcEEEC1B8ne180100EOS5_, symObjAddr: 0x32700, symBinAddr: 0x100035A74, symSize: 0x34 }
  - { offset: 0x2DD28, size: 0x8, addend: 0x0, symName: __ZNSt3__112basic_stringIcNS_11char_traitsIcEENS_9allocatorIcEEEC2B8ne180100EOS5_, symObjAddr: 0x32734, symBinAddr: 0x100035AA8, symSize: 0xB8 }
  - { offset: 0x2DD92, size: 0x8, addend: 0x0, symName: __ZZNSt3__112basic_stringIcNS_11char_traitsIcEENS_9allocatorIcEEEC1B8ne180100EOS5_ENKUlRS5_E_clES7_, symObjAddr: 0x327EC, symBinAddr: 0x100035B60, symSize: 0x40 }
  - { offset: 0x2DDCB, size: 0x8, addend: 0x0, symName: __ZNKSt3__112basic_stringIcNS_11char_traitsIcEENS_9allocatorIcEEE14__annotate_newB8ne180100Em, symObjAddr: 0x3282C, symBinAddr: 0x100035BA0, symSize: 0x14 }
  - { offset: 0x2DE00, size: 0x8, addend: 0x0, symName: __ZNKSt3__112basic_stringIcNS_11char_traitsIcEENS_9allocatorIcEEE4sizeB8ne180100Ev, symObjAddr: 0x32840, symBinAddr: 0x100035BB4, symSize: 0x54 }
  - { offset: 0x2DE26, size: 0x8, addend: 0x0, symName: __ZNKSt3__112basic_stringIcNS_11char_traitsIcEENS_9allocatorIcEEE17__annotate_deleteB8ne180100Ev, symObjAddr: 0x32894, symBinAddr: 0x100035C08, symSize: 0x10 }
  - { offset: 0x2DE4C, size: 0x8, addend: 0x0, symName: __ZNKSt3__112basic_stringIcNS_11char_traitsIcEENS_9allocatorIcEEE15__get_long_sizeB8ne180100Ev, symObjAddr: 0x328A4, symBinAddr: 0x100035C18, symSize: 0x28 }
  - { offset: 0x2DE72, size: 0x8, addend: 0x0, symName: __ZNKSt3__112basic_stringIcNS_11char_traitsIcEENS_9allocatorIcEEE16__get_short_sizeB8ne180100Ev, symObjAddr: 0x328CC, symBinAddr: 0x100035C40, symSize: 0x34 }
  - { offset: 0x2DE98, size: 0x8, addend: 0x0, symName: __ZN13image_textureD2Ev, symObjAddr: 0x32900, symBinAddr: 0x100035C74, symSize: 0x48 }
  - { offset: 0x2DEC4, size: 0x8, addend: 0x0, symName: __ZN9rtw_imageD1Ev, symObjAddr: 0x32948, symBinAddr: 0x100035CBC, symSize: 0x2C }
  - { offset: 0x2DEEE, size: 0x8, addend: 0x0, symName: __ZN9rtw_imageD2Ev, symObjAddr: 0x32974, symBinAddr: 0x100035CE8, symSize: 0x68 }
  - { offset: 0x2DF18, size: 0x8, addend: 0x0, symName: __ZNK9rtw_image6heightEv, symObjAddr: 0x329DC, symBinAddr: 0x100035D50, symSize: 0x4C }
  - { offset: 0x2DF3E, size: 0x8, addend: 0x0, symName: __ZNK9rtw_image5widthEv, symObjAddr: 0x32A28, symBinAddr: 0x100035D9C, symSize: 0x4C }
  - { offset: 0x2DF64, size: 0x8, addend: 0x0, symName: __ZN9rtw_image5clampEiii, symObjAddr: 0x32B2C, symBinAddr: 0x100035EA0, symSize: 0x74 }
  - { offset: 0x2DFA3, size: 0x8, addend: 0x0, symName: __ZNSt3__120__shared_ptr_emplaceI13image_textureNS_9allocatorIS1_EEE8_StorageD2B8ne180100Ev, symObjAddr: 0x32BA0, symBinAddr: 0x100035F14, symSize: 0x2C }
  - { offset: 0x2DFCD, size: 0x8, addend: 0x0, symName: __ZNSt3__120__shared_ptr_emplaceI13image_textureNS_9allocatorIS1_EEED2Ev, symObjAddr: 0x32BCC, symBinAddr: 0x100035F40, symSize: 0x48 }
  - { offset: 0x2DFF9, size: 0x8, addend: 0x0, symName: __ZNSt3__120__shared_ptr_emplaceI13image_textureNS_9allocatorIS1_EEE21__on_zero_shared_implB8ne180100IS3_Li0EEEvv, symObjAddr: 0x32C14, symBinAddr: 0x100035F88, symSize: 0x44 }
  - { offset: 0x2E049, size: 0x8, addend: 0x0, symName: __ZNSt3__116allocator_traitsINS_9allocatorI13image_textureEEE7destroyB8ne180100IS2_vEEvRS3_PT_, symObjAddr: 0x32C58, symBinAddr: 0x100035FCC, symSize: 0x2C }
  - { offset: 0x2E086, size: 0x8, addend: 0x0, symName: __ZNSt3__19allocatorI13image_textureE7destroyB8ne180100EPS1_, symObjAddr: 0x32C84, symBinAddr: 0x100035FF8, symSize: 0x30 }
  - { offset: 0x2E0BA, size: 0x8, addend: 0x0, symName: __ZNSt3__116allocator_traitsINS_9allocatorINS_20__shared_ptr_emplaceI13image_textureNS1_IS3_EEEEEEE10deallocateB8ne180100ERS6_PS5_m, symObjAddr: 0x32CB4, symBinAddr: 0x100036028, symSize: 0x34 }
  - { offset: 0x2E0FC, size: 0x8, addend: 0x0, symName: __ZNSt3__114pointer_traitsIPNS_20__shared_ptr_emplaceI13image_textureNS_9allocatorIS2_EEEEE10pointer_toB8ne180100ERS5_, symObjAddr: 0x32CE8, symBinAddr: 0x10003605C, symSize: 0x14 }
  - { offset: 0x2E11F, size: 0x8, addend: 0x0, symName: __ZNSt3__19allocatorINS_20__shared_ptr_emplaceI13image_textureNS0_IS2_EEEEE10deallocateB8ne180100EPS4_m, symObjAddr: 0x32CFC, symBinAddr: 0x100036070, symSize: 0x44 }
  - { offset: 0x2E161, size: 0x8, addend: 0x0, symName: __ZNSt3__110shared_ptrI13image_textureEC1B8ne180100Ev, symObjAddr: 0x32D40, symBinAddr: 0x1000360B4, symSize: 0x2C }
  - { offset: 0x2E18B, size: 0x8, addend: 0x0, symName: __ZNSt3__110shared_ptrI13image_textureE18__enable_weak_thisB8ne180100Ez, symObjAddr: 0x32D6C, symBinAddr: 0x1000360E0, symSize: 0x10 }
  - { offset: 0x2E1B2, size: 0x8, addend: 0x0, symName: __ZNSt3__110shared_ptrI13image_textureEC2B8ne180100Ev, symObjAddr: 0x32D7C, symBinAddr: 0x1000360F0, symSize: 0x1C }
  - { offset: 0x2E1DC, size: 0x8, addend: 0x0, symName: __ZNSt3__120__shared_ptr_emplaceI13image_textureNS_9allocatorIS1_EEE8_Storage10__get_elemB8ne180100Ev, symObjAddr: 0x32D98, symBinAddr: 0x10003610C, symSize: 0x3C }
  - { offset: 0x2E22F, size: 0x8, addend: 0x0, symName: __ZNSt3__117__compressed_pairINS_9allocatorI13image_textureEES2_E17__get_second_baseB8ne180100EPS4_, symObjAddr: 0x32DD4, symBinAddr: 0x100036148, symSize: 0x14 }
  - { offset: 0x2E252, size: 0x8, addend: 0x0, symName: __ZNSt3__118__allocation_guardINS_9allocatorINS_20__shared_ptr_emplaceI13image_textureNS1_IS3_EEEEEEED2B8ne180100Ev, symObjAddr: 0x32DE8, symBinAddr: 0x10003615C, symSize: 0x2C }
  - { offset: 0x2E27C, size: 0x8, addend: 0x0, symName: __ZNSt3__118__allocation_guardINS_9allocatorINS_20__shared_ptr_emplaceI13image_textureNS1_IS3_EEEEEEE9__destroyB8ne180100Ev, symObjAddr: 0x32E14, symBinAddr: 0x100036188, symSize: 0x4C }
  - { offset: 0x2E2A2, size: 0x8, addend: 0x0, symName: __ZNSt3__19allocatorI13image_textureEC2B8ne180100Ev, symObjAddr: 0x32E60, symBinAddr: 0x1000361D4, symSize: 0x2C }
  - { offset: 0x2E2CC, size: 0x8, addend: 0x0, symName: __ZNSt3__116__non_trivial_ifILb1ENS_9allocatorI13image_textureEEEC2B8ne180100Ev, symObjAddr: 0x32E8C, symBinAddr: 0x100036200, symSize: 0x14 }
  - { offset: 0x2E2F6, size: 0x8, addend: 0x0, symName: __ZNSt3__110shared_ptrI13image_textureED2B8ne180100Ev, symObjAddr: 0x32EA0, symBinAddr: 0x100036214, symSize: 0x54 }
  - { offset: 0x2E320, size: 0x8, addend: 0x0, symName: __ZNSt3__120__shared_ptr_emplaceI10lambertianNS_9allocatorIS1_EEEC1B8ne180100IJRNS_10shared_ptrI13image_textureEEES3_Li0EEES3_DpOT_, symObjAddr: 0x32F8C, symBinAddr: 0x100036300, symSize: 0x34 }
  - { offset: 0x2E382, size: 0x8, addend: 0x0, symName: __ZNSt3__120__shared_ptr_emplaceI10lambertianNS_9allocatorIS1_EEEC2B8ne180100IJRNS_10shared_ptrI13image_textureEEES3_Li0EEES3_DpOT_, symObjAddr: 0x32FC0, symBinAddr: 0x100036334, symSize: 0xBC }
  - { offset: 0x2E405, size: 0x8, addend: 0x0, symName: __ZNSt3__116allocator_traitsINS_9allocatorI10lambertianEEE9constructB8ne180100IS2_JRNS_10shared_ptrI13image_textureEEEvEEvRS3_PT_DpOT0_, symObjAddr: 0x3307C, symBinAddr: 0x1000363F0, symSize: 0x34 }
  - { offset: 0x2E45C, size: 0x8, addend: 0x0, symName: __ZNSt3__19allocatorI10lambertianE9constructB8ne180100IS1_JRNS_10shared_ptrI13image_textureEEEEEvPT_DpOT0_, symObjAddr: 0x330B0, symBinAddr: 0x100036424, symSize: 0x74 }
  - { offset: 0x2E4B2, size: 0x8, addend: 0x0, symName: __ZNSt3__110shared_ptrI7textureEC1B8ne180100I13image_texturevEERKNS0_IT_EE, symObjAddr: 0x33124, symBinAddr: 0x100036498, symSize: 0x34 }
  - { offset: 0x2E4F5, size: 0x8, addend: 0x0, symName: __ZNSt3__110shared_ptrI7textureEC2B8ne180100I13image_texturevEERKNS0_IT_EE, symObjAddr: 0x33158, symBinAddr: 0x1000364CC, symSize: 0x70 }
  - { offset: 0x2E538, size: 0x8, addend: 0x0, symName: __ZNSt3__120__shared_ptr_emplaceI6sphereNS_9allocatorIS1_EEEC1B8ne180100IJ4vec3iRNS_10shared_ptrI10lambertianEEES3_Li0EEES3_DpOT_, symObjAddr: 0x33270, symBinAddr: 0x1000365E4, symSize: 0x44 }
  - { offset: 0x2E5C2, size: 0x8, addend: 0x0, symName: __ZNSt3__120__shared_ptr_emplaceI6sphereNS_9allocatorIS1_EEEC2B8ne180100IJ4vec3iRNS_10shared_ptrI10lambertianEEES3_Li0EEES3_DpOT_, symObjAddr: 0x332B4, symBinAddr: 0x100036628, symSize: 0xCC }
  - { offset: 0x2E66D, size: 0x8, addend: 0x0, symName: __ZNSt3__116allocator_traitsINS_9allocatorI6sphereEEE9constructB8ne180100IS2_J4vec3iRNS_10shared_ptrI10lambertianEEEvEEvRS3_PT_DpOT0_, symObjAddr: 0x33380, symBinAddr: 0x1000366F4, symSize: 0x44 }
  - { offset: 0x2E6EC, size: 0x8, addend: 0x0, symName: __ZNSt3__19allocatorI6sphereE9constructB8ne180100IS1_J4vec3iRNS_10shared_ptrI10lambertianEEEEEvPT_DpOT0_, symObjAddr: 0x333C4, symBinAddr: 0x100036738, symSize: 0xA4 }
  - { offset: 0x2E768, size: 0x8, addend: 0x0, symName: __ZNSt3__110shared_ptrI8hittableEC2B8ne180100I6spherevEERKNS0_IT_EE, symObjAddr: 0x33468, symBinAddr: 0x1000367DC, symSize: 0x70 }
  - { offset: 0x2E7AB, size: 0x8, addend: 0x0, symName: __ZNSt3__19allocatorI13noise_textureEC1B8ne180100Ev, symObjAddr: 0x33570, symBinAddr: 0x1000368E4, symSize: 0x2C }
  - { offset: 0x2E821, size: 0x8, addend: 0x0, symName: __ZNSt3__118__allocation_guardINS_9allocatorINS_20__shared_ptr_emplaceI13noise_textureNS1_IS3_EEEEEEEC1B8ne180100IS4_EET_m, symObjAddr: 0x3359C, symBinAddr: 0x100036910, symSize: 0x34 }
  - { offset: 0x2E870, size: 0x8, addend: 0x0, symName: __ZNKSt3__118__allocation_guardINS_9allocatorINS_20__shared_ptr_emplaceI13noise_textureNS1_IS3_EEEEEEE5__getB8ne180100Ev, symObjAddr: 0x335D0, symBinAddr: 0x100036944, symSize: 0x18 }
  - { offset: 0x2E896, size: 0x8, addend: 0x0, symName: __ZNSt3__120__shared_ptr_emplaceI13noise_textureNS_9allocatorIS1_EEEC1B8ne180100IJiES3_Li0EEES3_DpOT_, symObjAddr: 0x335E8, symBinAddr: 0x10003695C, symSize: 0x34 }
  - { offset: 0x2E8F8, size: 0x8, addend: 0x0, symName: __ZNSt3__118__allocation_guardINS_9allocatorINS_20__shared_ptr_emplaceI13noise_textureNS1_IS3_EEEEEEE13__release_ptrB8ne180100Ev, symObjAddr: 0x3361C, symBinAddr: 0x100036990, symSize: 0x24 }
  - { offset: 0x2E92C, size: 0x8, addend: 0x0, symName: __ZNSt3__110shared_ptrI13noise_textureE27__create_with_control_blockB8ne180100IS1_NS_20__shared_ptr_emplaceIS1_NS_9allocatorIS1_EEEEEES2_PT_PT0_, symObjAddr: 0x33640, symBinAddr: 0x1000369B4, symSize: 0xA4 }
  - { offset: 0x2E981, size: 0x8, addend: 0x0, symName: __ZNSt3__120__shared_ptr_emplaceI13noise_textureNS_9allocatorIS1_EEE10__get_elemB8ne180100Ev, symObjAddr: 0x336E4, symBinAddr: 0x100036A58, symSize: 0x28 }
  - { offset: 0x2E9A7, size: 0x8, addend: 0x0, symName: __ZNSt3__118__allocation_guardINS_9allocatorINS_20__shared_ptr_emplaceI13noise_textureNS1_IS3_EEEEEEED1B8ne180100Ev, symObjAddr: 0x3370C, symBinAddr: 0x100036A80, symSize: 0x2C }
  - { offset: 0x2E9D1, size: 0x8, addend: 0x0, symName: __ZNSt3__118__allocation_guardINS_9allocatorINS_20__shared_ptr_emplaceI13noise_textureNS1_IS3_EEEEEEEC2B8ne180100IS4_EET_m, symObjAddr: 0x33738, symBinAddr: 0x100036AAC, symSize: 0x50 }
  - { offset: 0x2EA20, size: 0x8, addend: 0x0, symName: __ZNSt3__19allocatorINS_20__shared_ptr_emplaceI13noise_textureNS0_IS2_EEEEEC1B8ne180100IS2_EERKNS0_IT_EE, symObjAddr: 0x33788, symBinAddr: 0x100036AFC, symSize: 0x34 }
  - { offset: 0x2EA5E, size: 0x8, addend: 0x0, symName: __ZNSt3__116allocator_traitsINS_9allocatorINS_20__shared_ptr_emplaceI13noise_textureNS1_IS3_EEEEEEE8allocateB8ne180100ERS6_m, symObjAddr: 0x337BC, symBinAddr: 0x100036B30, symSize: 0x2C }
  - { offset: 0x2EA91, size: 0x8, addend: 0x0, symName: __ZNSt3__19allocatorINS_20__shared_ptr_emplaceI13noise_textureNS0_IS2_EEEEEC2B8ne180100IS2_EERKNS0_IT_EE, symObjAddr: 0x337E8, symBinAddr: 0x100036B5C, symSize: 0x30 }
  - { offset: 0x2EACF, size: 0x8, addend: 0x0, symName: __ZNSt3__116__non_trivial_ifILb1ENS_9allocatorINS_20__shared_ptr_emplaceI13noise_textureNS1_IS3_EEEEEEEC2B8ne180100Ev, symObjAddr: 0x33818, symBinAddr: 0x100036B8C, symSize: 0x14 }
  - { offset: 0x2EAF9, size: 0x8, addend: 0x0, symName: __ZNSt3__19allocatorINS_20__shared_ptr_emplaceI13noise_textureNS0_IS2_EEEEE8allocateB8ne180100Em, symObjAddr: 0x3382C, symBinAddr: 0x100036BA0, symSize: 0x5C }
  - { offset: 0x2EB37, size: 0x8, addend: 0x0, symName: __ZNSt3__116allocator_traitsINS_9allocatorINS_20__shared_ptr_emplaceI13noise_textureNS1_IS3_EEEEEEE8max_sizeB8ne180100IS6_vEEmRKS6_, symObjAddr: 0x33888, symBinAddr: 0x100036BFC, symSize: 0x24 }
  - { offset: 0x2EB65, size: 0x8, addend: 0x0, symName: __ZNKSt3__19allocatorINS_20__shared_ptr_emplaceI13noise_textureNS0_IS2_EEEEE8max_sizeB8ne180100Ev, symObjAddr: 0x338AC, symBinAddr: 0x100036C20, symSize: 0x20 }
  - { offset: 0x2EB8B, size: 0x8, addend: 0x0, symName: __ZNSt3__120__shared_ptr_emplaceI13noise_textureNS_9allocatorIS1_EEEC2B8ne180100IJiES3_Li0EEES3_DpOT_, symObjAddr: 0x338CC, symBinAddr: 0x100036C40, symSize: 0xBC }
  - { offset: 0x2EC0E, size: 0x8, addend: 0x0, symName: __ZNSt3__120__shared_ptr_emplaceI13noise_textureNS_9allocatorIS1_EEE8_StorageC1B8ne180100EOS3_, symObjAddr: 0x33988, symBinAddr: 0x100036CFC, symSize: 0x34 }
  - { offset: 0x2EC47, size: 0x8, addend: 0x0, symName: __ZNSt3__120__shared_ptr_emplaceI13noise_textureNS_9allocatorIS1_EEE11__get_allocB8ne180100Ev, symObjAddr: 0x339BC, symBinAddr: 0x100036D30, symSize: 0x28 }
  - { offset: 0x2EC72, size: 0x8, addend: 0x0, symName: __ZNSt3__116allocator_traitsINS_9allocatorI13noise_textureEEE9constructB8ne180100IS2_JiEvEEvRS3_PT_DpOT0_, symObjAddr: 0x339E4, symBinAddr: 0x100036D58, symSize: 0x34 }
  - { offset: 0x2ECC9, size: 0x8, addend: 0x0, symName: __ZNSt3__120__shared_ptr_emplaceI13noise_textureNS_9allocatorIS1_EEE8_StorageD1B8ne180100Ev, symObjAddr: 0x33A18, symBinAddr: 0x100036D8C, symSize: 0x2C }
  - { offset: 0x2ECF3, size: 0x8, addend: 0x0, symName: __ZNSt3__120__shared_ptr_emplaceI13noise_textureNS_9allocatorIS1_EEED1Ev, symObjAddr: 0x33A44, symBinAddr: 0x100036DB8, symSize: 0x2C }
  - { offset: 0x2ED1F, size: 0x8, addend: 0x0, symName: __ZNSt3__120__shared_ptr_emplaceI13noise_textureNS_9allocatorIS1_EEED0Ev, symObjAddr: 0x33A70, symBinAddr: 0x100036DE4, symSize: 0x30 }
  - { offset: 0x2ED4B, size: 0x8, addend: 0x0, symName: __ZNSt3__120__shared_ptr_emplaceI13noise_textureNS_9allocatorIS1_EEE16__on_zero_sharedEv, symObjAddr: 0x33AA0, symBinAddr: 0x100036E14, symSize: 0x24 }
  - { offset: 0x2ED71, size: 0x8, addend: 0x0, symName: __ZNSt3__120__shared_ptr_emplaceI13noise_textureNS_9allocatorIS1_EEE21__on_zero_shared_weakEv, symObjAddr: 0x33AC4, symBinAddr: 0x100036E38, symSize: 0x5C }
  - { offset: 0x2EDB2, size: 0x8, addend: 0x0, symName: __ZNSt3__120__shared_ptr_emplaceI13noise_textureNS_9allocatorIS1_EEE8_StorageC2B8ne180100EOS3_, symObjAddr: 0x33B20, symBinAddr: 0x100036E94, symSize: 0x30 }
  - { offset: 0x2EDEB, size: 0x8, addend: 0x0, symName: __ZNSt3__120__shared_ptr_emplaceI13noise_textureNS_9allocatorIS1_EEE8_Storage11__get_allocB8ne180100Ev, symObjAddr: 0x33B50, symBinAddr: 0x100036EC4, symSize: 0x3C }
  - { offset: 0x2EE3E, size: 0x8, addend: 0x0, symName: __ZNSt3__117__compressed_pairINS_9allocatorI13noise_textureEES2_E16__get_first_baseB8ne180100EPS4_, symObjAddr: 0x33B8C, symBinAddr: 0x100036F00, symSize: 0x14 }
  - { offset: 0x2EE61, size: 0x8, addend: 0x0, symName: __ZNSt3__19allocatorI13noise_textureE9constructB8ne180100IS1_JiEEEvPT_DpOT0_, symObjAddr: 0x33BA0, symBinAddr: 0x100036F14, symSize: 0x40 }
  - { offset: 0x2EEB7, size: 0x8, addend: 0x0, symName: __ZN13noise_textureC1Ed, symObjAddr: 0x33BE0, symBinAddr: 0x100036F54, symSize: 0x34 }
  - { offset: 0x2EEEF, size: 0x8, addend: 0x0, symName: __ZN13noise_textureC2Ed, symObjAddr: 0x33C14, symBinAddr: 0x100036F88, symSize: 0x7C }
  - { offset: 0x2EF27, size: 0x8, addend: 0x0, symName: __ZN6perlinC1Ev, symObjAddr: 0x33C90, symBinAddr: 0x100037004, symSize: 0x2C }
  - { offset: 0x2EF51, size: 0x8, addend: 0x0, symName: __ZN13noise_textureD1Ev, symObjAddr: 0x33CBC, symBinAddr: 0x100037030, symSize: 0x2C }
  - { offset: 0x2EF7D, size: 0x8, addend: 0x0, symName: __ZN13noise_textureD0Ev, symObjAddr: 0x33CE8, symBinAddr: 0x10003705C, symSize: 0x30 }
  - { offset: 0x2EFA9, size: 0x8, addend: 0x0, symName: __ZNK13noise_texture5valueEddRK4vec3, symObjAddr: 0x33D18, symBinAddr: 0x10003708C, symSize: 0xBC }
  - { offset: 0x2EFF9, size: 0x8, addend: 0x0, symName: __ZN6perlinC2Ev, symObjAddr: 0x33DD4, symBinAddr: 0x100037148, symSize: 0x114 }
  - { offset: 0x2F03F, size: 0x8, addend: 0x0, symName: __ZN6perlin20perlin_generate_permEPi, symObjAddr: 0x33EE8, symBinAddr: 0x10003725C, symSize: 0x68 }
  - { offset: 0x2F07E, size: 0x8, addend: 0x0, symName: __ZN6perlin7permuteEPii, symObjAddr: 0x33F50, symBinAddr: 0x1000372C4, symSize: 0xA0 }
  - { offset: 0x2F0F4, size: 0x8, addend: 0x0, symName: __Z10random_intii, symObjAddr: 0x33FF0, symBinAddr: 0x100037364, symSize: 0x44 }
  - { offset: 0x2F12F, size: 0x8, addend: 0x0, symName: __ZN13noise_textureD2Ev, symObjAddr: 0x34034, symBinAddr: 0x1000373A8, symSize: 0x2C }
  - { offset: 0x2F15B, size: 0x8, addend: 0x0, symName: __ZNK6perlin4turbERK4vec3i, symObjAddr: 0x34060, symBinAddr: 0x1000373D4, symSize: 0xD4 }
  - { offset: 0x2F1E3, size: 0x8, addend: 0x0, symName: __ZNK6perlin5noiseERK4vec3, symObjAddr: 0x34134, symBinAddr: 0x1000374A8, symSize: 0x2A0 }
  - { offset: 0x2F2D7, size: 0x8, addend: 0x0, symName: __ZN4vec3mLEd, symObjAddr: 0x343D4, symBinAddr: 0x100037748, symSize: 0x48 }
  - { offset: 0x2F30B, size: 0x8, addend: 0x0, symName: __ZN6perlin13perlin_interpEPA2_A2_K4vec3ddd, symObjAddr: 0x3441C, symBinAddr: 0x100037790, symSize: 0x268 }
  - { offset: 0x2F401, size: 0x8, addend: 0x0, symName: __ZNSt3__120__shared_ptr_emplaceI13noise_textureNS_9allocatorIS1_EEE8_StorageD2B8ne180100Ev, symObjAddr: 0x34684, symBinAddr: 0x1000379F8, symSize: 0x2C }
  - { offset: 0x2F42B, size: 0x8, addend: 0x0, symName: __ZNSt3__120__shared_ptr_emplaceI13noise_textureNS_9allocatorIS1_EEED2Ev, symObjAddr: 0x346B0, symBinAddr: 0x100037A24, symSize: 0x48 }
  - { offset: 0x2F457, size: 0x8, addend: 0x0, symName: __ZNSt3__120__shared_ptr_emplaceI13noise_textureNS_9allocatorIS1_EEE21__on_zero_shared_implB8ne180100IS3_Li0EEEvv, symObjAddr: 0x346F8, symBinAddr: 0x100037A6C, symSize: 0x44 }
  - { offset: 0x2F4A7, size: 0x8, addend: 0x0, symName: __ZNSt3__116allocator_traitsINS_9allocatorI13noise_textureEEE7destroyB8ne180100IS2_vEEvRS3_PT_, symObjAddr: 0x3473C, symBinAddr: 0x100037AB0, symSize: 0x2C }
  - { offset: 0x2F4E4, size: 0x8, addend: 0x0, symName: __ZNSt3__19allocatorI13noise_textureE7destroyB8ne180100EPS1_, symObjAddr: 0x34768, symBinAddr: 0x100037ADC, symSize: 0x30 }
  - { offset: 0x2F518, size: 0x8, addend: 0x0, symName: __ZNSt3__116allocator_traitsINS_9allocatorINS_20__shared_ptr_emplaceI13noise_textureNS1_IS3_EEEEEEE10deallocateB8ne180100ERS6_PS5_m, symObjAddr: 0x34798, symBinAddr: 0x100037B0C, symSize: 0x34 }
  - { offset: 0x2F55A, size: 0x8, addend: 0x0, symName: __ZNSt3__114pointer_traitsIPNS_20__shared_ptr_emplaceI13noise_textureNS_9allocatorIS2_EEEEE10pointer_toB8ne180100ERS5_, symObjAddr: 0x347CC, symBinAddr: 0x100037B40, symSize: 0x14 }
  - { offset: 0x2F57D, size: 0x8, addend: 0x0, symName: __ZNSt3__19allocatorINS_20__shared_ptr_emplaceI13noise_textureNS0_IS2_EEEEE10deallocateB8ne180100EPS4_m, symObjAddr: 0x347E0, symBinAddr: 0x100037B54, symSize: 0x44 }
  - { offset: 0x2F5BF, size: 0x8, addend: 0x0, symName: __ZNSt3__110shared_ptrI13noise_textureEC1B8ne180100Ev, symObjAddr: 0x34824, symBinAddr: 0x100037B98, symSize: 0x2C }
  - { offset: 0x2F5E9, size: 0x8, addend: 0x0, symName: __ZNSt3__110shared_ptrI13noise_textureE18__enable_weak_thisB8ne180100Ez, symObjAddr: 0x34850, symBinAddr: 0x100037BC4, symSize: 0x10 }
  - { offset: 0x2F610, size: 0x8, addend: 0x0, symName: __ZNSt3__110shared_ptrI13noise_textureEC2B8ne180100Ev, symObjAddr: 0x34860, symBinAddr: 0x100037BD4, symSize: 0x1C }
  - { offset: 0x2F63A, size: 0x8, addend: 0x0, symName: __ZNSt3__120__shared_ptr_emplaceI13noise_textureNS_9allocatorIS1_EEE8_Storage10__get_elemB8ne180100Ev, symObjAddr: 0x3487C, symBinAddr: 0x100037BF0, symSize: 0x3C }
  - { offset: 0x2F68D, size: 0x8, addend: 0x0, symName: __ZNSt3__117__compressed_pairINS_9allocatorI13noise_textureEES2_E17__get_second_baseB8ne180100EPS4_, symObjAddr: 0x348B8, symBinAddr: 0x100037C2C, symSize: 0x14 }
  - { offset: 0x2F6B0, size: 0x8, addend: 0x0, symName: __ZNSt3__118__allocation_guardINS_9allocatorINS_20__shared_ptr_emplaceI13noise_textureNS1_IS3_EEEEEEED2B8ne180100Ev, symObjAddr: 0x348CC, symBinAddr: 0x100037C40, symSize: 0x2C }
  - { offset: 0x2F6DA, size: 0x8, addend: 0x0, symName: __ZNSt3__118__allocation_guardINS_9allocatorINS_20__shared_ptr_emplaceI13noise_textureNS1_IS3_EEEEEEE9__destroyB8ne180100Ev, symObjAddr: 0x348F8, symBinAddr: 0x100037C6C, symSize: 0x4C }
  - { offset: 0x2F700, size: 0x8, addend: 0x0, symName: __ZNSt3__19allocatorI13noise_textureEC2B8ne180100Ev, symObjAddr: 0x34944, symBinAddr: 0x100037CB8, symSize: 0x2C }
  - { offset: 0x2F72A, size: 0x8, addend: 0x0, symName: __ZNSt3__116__non_trivial_ifILb1ENS_9allocatorI13noise_textureEEEC2B8ne180100Ev, symObjAddr: 0x34970, symBinAddr: 0x100037CE4, symSize: 0x14 }
  - { offset: 0x2F754, size: 0x8, addend: 0x0, symName: __ZNSt3__110shared_ptrI13noise_textureED2B8ne180100Ev, symObjAddr: 0x34984, symBinAddr: 0x100037CF8, symSize: 0x54 }
  - { offset: 0x2F77E, size: 0x8, addend: 0x0, symName: __ZNSt3__120__shared_ptr_emplaceI10lambertianNS_9allocatorIS1_EEEC1B8ne180100IJRNS_10shared_ptrI13noise_textureEEES3_Li0EEES3_DpOT_, symObjAddr: 0x34A70, symBinAddr: 0x100037DE4, symSize: 0x34 }
  - { offset: 0x2F7E0, size: 0x8, addend: 0x0, symName: __ZNSt3__120__shared_ptr_emplaceI10lambertianNS_9allocatorIS1_EEEC2B8ne180100IJRNS_10shared_ptrI13noise_textureEEES3_Li0EEES3_DpOT_, symObjAddr: 0x34AA4, symBinAddr: 0x100037E18, symSize: 0xBC }
  - { offset: 0x2F863, size: 0x8, addend: 0x0, symName: __ZNSt3__116allocator_traitsINS_9allocatorI10lambertianEEE9constructB8ne180100IS2_JRNS_10shared_ptrI13noise_textureEEEvEEvRS3_PT_DpOT0_, symObjAddr: 0x34B60, symBinAddr: 0x100037ED4, symSize: 0x34 }
  - { offset: 0x2F8BA, size: 0x8, addend: 0x0, symName: __ZNSt3__19allocatorI10lambertianE9constructB8ne180100IS1_JRNS_10shared_ptrI13noise_textureEEEEEvPT_DpOT0_, symObjAddr: 0x34B94, symBinAddr: 0x100037F08, symSize: 0x74 }
  - { offset: 0x2F910, size: 0x8, addend: 0x0, symName: __ZNSt3__110shared_ptrI7textureEC1B8ne180100I13noise_texturevEERKNS0_IT_EE, symObjAddr: 0x34C08, symBinAddr: 0x100037F7C, symSize: 0x34 }
  - { offset: 0x2F953, size: 0x8, addend: 0x0, symName: __ZNSt3__110shared_ptrI7textureEC2B8ne180100I13noise_texturevEERKNS0_IT_EE, symObjAddr: 0x34C3C, symBinAddr: 0x100037FB0, symSize: 0x70 }
  - { offset: 0x2F996, size: 0x8, addend: 0x0, symName: __ZNSt3__19allocatorI4quadEC1B8ne180100Ev, symObjAddr: 0x34D5C, symBinAddr: 0x1000380D0, symSize: 0x2C }
  - { offset: 0x2FA0C, size: 0x8, addend: 0x0, symName: __ZNSt3__118__allocation_guardINS_9allocatorINS_20__shared_ptr_emplaceI4quadNS1_IS3_EEEEEEEC1B8ne180100IS4_EET_m, symObjAddr: 0x34D88, symBinAddr: 0x1000380FC, symSize: 0x34 }
  - { offset: 0x2FA5B, size: 0x8, addend: 0x0, symName: __ZNKSt3__118__allocation_guardINS_9allocatorINS_20__shared_ptr_emplaceI4quadNS1_IS3_EEEEEEE5__getB8ne180100Ev, symObjAddr: 0x34DBC, symBinAddr: 0x100038130, symSize: 0x18 }
  - { offset: 0x2FA81, size: 0x8, addend: 0x0, symName: __ZNSt3__120__shared_ptr_emplaceI4quadNS_9allocatorIS1_EEEC1B8ne180100IJ4vec3S6_S6_RNS_10shared_ptrI10lambertianEEES3_Li0EEES3_DpOT_, symObjAddr: 0x34DD4, symBinAddr: 0x100038148, symSize: 0x4C }
  - { offset: 0x2FB1F, size: 0x8, addend: 0x0, symName: __ZNSt3__118__allocation_guardINS_9allocatorINS_20__shared_ptr_emplaceI4quadNS1_IS3_EEEEEEE13__release_ptrB8ne180100Ev, symObjAddr: 0x34E20, symBinAddr: 0x100038194, symSize: 0x24 }
  - { offset: 0x2FB53, size: 0x8, addend: 0x0, symName: __ZNSt3__110shared_ptrI4quadE27__create_with_control_blockB8ne180100IS1_NS_20__shared_ptr_emplaceIS1_NS_9allocatorIS1_EEEEEES2_PT_PT0_, symObjAddr: 0x34E44, symBinAddr: 0x1000381B8, symSize: 0xA4 }
  - { offset: 0x2FBA8, size: 0x8, addend: 0x0, symName: __ZNSt3__120__shared_ptr_emplaceI4quadNS_9allocatorIS1_EEE10__get_elemB8ne180100Ev, symObjAddr: 0x34EE8, symBinAddr: 0x10003825C, symSize: 0x28 }
  - { offset: 0x2FBCE, size: 0x8, addend: 0x0, symName: __ZNSt3__118__allocation_guardINS_9allocatorINS_20__shared_ptr_emplaceI4quadNS1_IS3_EEEEEEED1B8ne180100Ev, symObjAddr: 0x34F10, symBinAddr: 0x100038284, symSize: 0x2C }
  - { offset: 0x2FBF8, size: 0x8, addend: 0x0, symName: __ZNSt3__118__allocation_guardINS_9allocatorINS_20__shared_ptr_emplaceI4quadNS1_IS3_EEEEEEEC2B8ne180100IS4_EET_m, symObjAddr: 0x34F3C, symBinAddr: 0x1000382B0, symSize: 0x50 }
  - { offset: 0x2FC47, size: 0x8, addend: 0x0, symName: __ZNSt3__19allocatorINS_20__shared_ptr_emplaceI4quadNS0_IS2_EEEEEC1B8ne180100IS2_EERKNS0_IT_EE, symObjAddr: 0x34F8C, symBinAddr: 0x100038300, symSize: 0x34 }
  - { offset: 0x2FC85, size: 0x8, addend: 0x0, symName: __ZNSt3__116allocator_traitsINS_9allocatorINS_20__shared_ptr_emplaceI4quadNS1_IS3_EEEEEEE8allocateB8ne180100ERS6_m, symObjAddr: 0x34FC0, symBinAddr: 0x100038334, symSize: 0x2C }
  - { offset: 0x2FCB8, size: 0x8, addend: 0x0, symName: __ZNSt3__19allocatorINS_20__shared_ptr_emplaceI4quadNS0_IS2_EEEEEC2B8ne180100IS2_EERKNS0_IT_EE, symObjAddr: 0x34FEC, symBinAddr: 0x100038360, symSize: 0x30 }
  - { offset: 0x2FCF6, size: 0x8, addend: 0x0, symName: __ZNSt3__116__non_trivial_ifILb1ENS_9allocatorINS_20__shared_ptr_emplaceI4quadNS1_IS3_EEEEEEEC2B8ne180100Ev, symObjAddr: 0x3501C, symBinAddr: 0x100038390, symSize: 0x14 }
  - { offset: 0x2FD20, size: 0x8, addend: 0x0, symName: __ZNSt3__19allocatorINS_20__shared_ptr_emplaceI4quadNS0_IS2_EEEEE8allocateB8ne180100Em, symObjAddr: 0x35030, symBinAddr: 0x1000383A4, symSize: 0x5C }
  - { offset: 0x2FD5E, size: 0x8, addend: 0x0, symName: __ZNSt3__116allocator_traitsINS_9allocatorINS_20__shared_ptr_emplaceI4quadNS1_IS3_EEEEEEE8max_sizeB8ne180100IS6_vEEmRKS6_, symObjAddr: 0x3508C, symBinAddr: 0x100038400, symSize: 0x24 }
  - { offset: 0x2FD8C, size: 0x8, addend: 0x0, symName: __ZNKSt3__19allocatorINS_20__shared_ptr_emplaceI4quadNS0_IS2_EEEEE8max_sizeB8ne180100Ev, symObjAddr: 0x350B0, symBinAddr: 0x100038424, symSize: 0x20 }
  - { offset: 0x2FDB2, size: 0x8, addend: 0x0, symName: __ZNSt3__120__shared_ptr_emplaceI4quadNS_9allocatorIS1_EEEC2B8ne180100IJ4vec3S6_S6_RNS_10shared_ptrI10lambertianEEES3_Li0EEES3_DpOT_, symObjAddr: 0x350D0, symBinAddr: 0x100038444, symSize: 0xD4 }
  - { offset: 0x2FE71, size: 0x8, addend: 0x0, symName: __ZNSt3__120__shared_ptr_emplaceI4quadNS_9allocatorIS1_EEE8_StorageC1B8ne180100EOS3_, symObjAddr: 0x351A4, symBinAddr: 0x100038518, symSize: 0x34 }
  - { offset: 0x2FEAA, size: 0x8, addend: 0x0, symName: __ZNSt3__120__shared_ptr_emplaceI4quadNS_9allocatorIS1_EEE11__get_allocB8ne180100Ev, symObjAddr: 0x351D8, symBinAddr: 0x10003854C, symSize: 0x28 }
  - { offset: 0x2FED5, size: 0x8, addend: 0x0, symName: __ZNSt3__116allocator_traitsINS_9allocatorI4quadEEE9constructB8ne180100IS2_J4vec3S6_S6_RNS_10shared_ptrI10lambertianEEEvEEvRS3_PT_DpOT0_, symObjAddr: 0x35200, symBinAddr: 0x100038574, symSize: 0x4C }
  - { offset: 0x2FF68, size: 0x8, addend: 0x0, symName: __ZNSt3__120__shared_ptr_emplaceI4quadNS_9allocatorIS1_EEE8_StorageD1B8ne180100Ev, symObjAddr: 0x3524C, symBinAddr: 0x1000385C0, symSize: 0x2C }
  - { offset: 0x2FF92, size: 0x8, addend: 0x0, symName: __ZNSt3__120__shared_ptr_emplaceI4quadNS_9allocatorIS1_EEED1Ev, symObjAddr: 0x35278, symBinAddr: 0x1000385EC, symSize: 0x2C }
  - { offset: 0x2FFBE, size: 0x8, addend: 0x0, symName: __ZNSt3__120__shared_ptr_emplaceI4quadNS_9allocatorIS1_EEED0Ev, symObjAddr: 0x352A4, symBinAddr: 0x100038618, symSize: 0x30 }
  - { offset: 0x2FFEA, size: 0x8, addend: 0x0, symName: __ZNSt3__120__shared_ptr_emplaceI4quadNS_9allocatorIS1_EEE16__on_zero_sharedEv, symObjAddr: 0x352D4, symBinAddr: 0x100038648, symSize: 0x24 }
  - { offset: 0x30010, size: 0x8, addend: 0x0, symName: __ZNSt3__120__shared_ptr_emplaceI4quadNS_9allocatorIS1_EEE21__on_zero_shared_weakEv, symObjAddr: 0x352F8, symBinAddr: 0x10003866C, symSize: 0x5C }
  - { offset: 0x30051, size: 0x8, addend: 0x0, symName: __ZNSt3__120__shared_ptr_emplaceI4quadNS_9allocatorIS1_EEE8_StorageC2B8ne180100EOS3_, symObjAddr: 0x35354, symBinAddr: 0x1000386C8, symSize: 0x30 }
  - { offset: 0x3008A, size: 0x8, addend: 0x0, symName: __ZNSt3__120__shared_ptr_emplaceI4quadNS_9allocatorIS1_EEE8_Storage11__get_allocB8ne180100Ev, symObjAddr: 0x35384, symBinAddr: 0x1000386F8, symSize: 0x3C }
  - { offset: 0x300DD, size: 0x8, addend: 0x0, symName: __ZNSt3__117__compressed_pairINS_9allocatorI4quadEES2_E16__get_first_baseB8ne180100EPS4_, symObjAddr: 0x353C0, symBinAddr: 0x100038734, symSize: 0x14 }
  - { offset: 0x30100, size: 0x8, addend: 0x0, symName: __ZNSt3__19allocatorI4quadE9constructB8ne180100IS1_J4vec3S4_S4_RNS_10shared_ptrI10lambertianEEEEEvPT_DpOT0_, symObjAddr: 0x353D4, symBinAddr: 0x100038748, symSize: 0xA4 }
  - { offset: 0x3018F, size: 0x8, addend: 0x0, symName: __ZN4quadC1ERK4vec3S2_S2_NSt3__110shared_ptrI8materialEE, symObjAddr: 0x35478, symBinAddr: 0x1000387EC, symSize: 0x4C }
  - { offset: 0x301F2, size: 0x8, addend: 0x0, symName: __ZN4quadC2ERK4vec3S2_S2_NSt3__110shared_ptrI8materialEE, symObjAddr: 0x354C4, symBinAddr: 0x100038838, symSize: 0x208 }
  - { offset: 0x3026A, size: 0x8, addend: 0x0, symName: __ZN4quadD1Ev, symObjAddr: 0x356CC, symBinAddr: 0x100038A40, symSize: 0x2C }
  - { offset: 0x30296, size: 0x8, addend: 0x0, symName: __ZN4quadD0Ev, symObjAddr: 0x356F8, symBinAddr: 0x100038A6C, symSize: 0x30 }
  - { offset: 0x302C2, size: 0x8, addend: 0x0, symName: __ZNK4quad3hitERK3ray8intervalR10hit_record, symObjAddr: 0x35728, symBinAddr: 0x100038A9C, symSize: 0x228 }
  - { offset: 0x3036A, size: 0x8, addend: 0x0, symName: __ZNK4quad12bounding_boxEv, symObjAddr: 0x35950, symBinAddr: 0x100038CC4, symSize: 0x38 }
  - { offset: 0x30390, size: 0x8, addend: 0x0, symName: __ZN4quad16set_bounding_boxEv, symObjAddr: 0x35988, symBinAddr: 0x100038CFC, symSize: 0x100 }
  - { offset: 0x303D4, size: 0x8, addend: 0x0, symName: __ZNK4quad11is_interiorEddR10hit_record, symObjAddr: 0x35A88, symBinAddr: 0x100038DFC, symSize: 0xAC }
  - { offset: 0x30432, size: 0x8, addend: 0x0, symName: __ZN4quadD2Ev, symObjAddr: 0x35B34, symBinAddr: 0x100038EA8, symSize: 0x48 }
  - { offset: 0x3045E, size: 0x8, addend: 0x0, symName: __ZNK8interval8containsEd, symObjAddr: 0x35B7C, symBinAddr: 0x100038EF0, symSize: 0x60 }
  - { offset: 0x30492, size: 0x8, addend: 0x0, symName: __ZNSt3__120__shared_ptr_emplaceI4quadNS_9allocatorIS1_EEE8_StorageD2B8ne180100Ev, symObjAddr: 0x35BDC, symBinAddr: 0x100038F50, symSize: 0x2C }
  - { offset: 0x304BC, size: 0x8, addend: 0x0, symName: __ZNSt3__120__shared_ptr_emplaceI4quadNS_9allocatorIS1_EEED2Ev, symObjAddr: 0x35C08, symBinAddr: 0x100038F7C, symSize: 0x48 }
  - { offset: 0x304E8, size: 0x8, addend: 0x0, symName: __ZNSt3__120__shared_ptr_emplaceI4quadNS_9allocatorIS1_EEE21__on_zero_shared_implB8ne180100IS3_Li0EEEvv, symObjAddr: 0x35C50, symBinAddr: 0x100038FC4, symSize: 0x44 }
  - { offset: 0x30538, size: 0x8, addend: 0x0, symName: __ZNSt3__116allocator_traitsINS_9allocatorI4quadEEE7destroyB8ne180100IS2_vEEvRS3_PT_, symObjAddr: 0x35C94, symBinAddr: 0x100039008, symSize: 0x2C }
  - { offset: 0x30575, size: 0x8, addend: 0x0, symName: __ZNSt3__19allocatorI4quadE7destroyB8ne180100EPS1_, symObjAddr: 0x35CC0, symBinAddr: 0x100039034, symSize: 0x30 }
  - { offset: 0x305A9, size: 0x8, addend: 0x0, symName: __ZNSt3__116allocator_traitsINS_9allocatorINS_20__shared_ptr_emplaceI4quadNS1_IS3_EEEEEEE10deallocateB8ne180100ERS6_PS5_m, symObjAddr: 0x35CF0, symBinAddr: 0x100039064, symSize: 0x34 }
  - { offset: 0x305EB, size: 0x8, addend: 0x0, symName: __ZNSt3__114pointer_traitsIPNS_20__shared_ptr_emplaceI4quadNS_9allocatorIS2_EEEEE10pointer_toB8ne180100ERS5_, symObjAddr: 0x35D24, symBinAddr: 0x100039098, symSize: 0x14 }
  - { offset: 0x3060E, size: 0x8, addend: 0x0, symName: __ZNSt3__19allocatorINS_20__shared_ptr_emplaceI4quadNS0_IS2_EEEEE10deallocateB8ne180100EPS4_m, symObjAddr: 0x35D38, symBinAddr: 0x1000390AC, symSize: 0x44 }
  - { offset: 0x30650, size: 0x8, addend: 0x0, symName: __ZNSt3__110shared_ptrI4quadEC1B8ne180100Ev, symObjAddr: 0x35D7C, symBinAddr: 0x1000390F0, symSize: 0x2C }
  - { offset: 0x3067A, size: 0x8, addend: 0x0, symName: __ZNSt3__110shared_ptrI4quadE18__enable_weak_thisB8ne180100Ez, symObjAddr: 0x35DA8, symBinAddr: 0x10003911C, symSize: 0x10 }
  - { offset: 0x306A1, size: 0x8, addend: 0x0, symName: __ZNSt3__110shared_ptrI4quadEC2B8ne180100Ev, symObjAddr: 0x35DB8, symBinAddr: 0x10003912C, symSize: 0x1C }
  - { offset: 0x306CB, size: 0x8, addend: 0x0, symName: __ZNSt3__120__shared_ptr_emplaceI4quadNS_9allocatorIS1_EEE8_Storage10__get_elemB8ne180100Ev, symObjAddr: 0x35DD4, symBinAddr: 0x100039148, symSize: 0x3C }
  - { offset: 0x3071E, size: 0x8, addend: 0x0, symName: __ZNSt3__117__compressed_pairINS_9allocatorI4quadEES2_E17__get_second_baseB8ne180100EPS4_, symObjAddr: 0x35E10, symBinAddr: 0x100039184, symSize: 0x14 }
  - { offset: 0x30741, size: 0x8, addend: 0x0, symName: __ZNSt3__118__allocation_guardINS_9allocatorINS_20__shared_ptr_emplaceI4quadNS1_IS3_EEEEEEED2B8ne180100Ev, symObjAddr: 0x35E24, symBinAddr: 0x100039198, symSize: 0x2C }
  - { offset: 0x3076B, size: 0x8, addend: 0x0, symName: __ZNSt3__118__allocation_guardINS_9allocatorINS_20__shared_ptr_emplaceI4quadNS1_IS3_EEEEEEE9__destroyB8ne180100Ev, symObjAddr: 0x35E50, symBinAddr: 0x1000391C4, symSize: 0x4C }
  - { offset: 0x30791, size: 0x8, addend: 0x0, symName: __ZNSt3__19allocatorI4quadEC2B8ne180100Ev, symObjAddr: 0x35E9C, symBinAddr: 0x100039210, symSize: 0x2C }
  - { offset: 0x307BB, size: 0x8, addend: 0x0, symName: __ZNSt3__116__non_trivial_ifILb1ENS_9allocatorI4quadEEEC2B8ne180100Ev, symObjAddr: 0x35EC8, symBinAddr: 0x10003923C, symSize: 0x14 }
  - { offset: 0x307E5, size: 0x8, addend: 0x0, symName: __ZNSt3__110shared_ptrI4quadED2B8ne180100Ev, symObjAddr: 0x35EDC, symBinAddr: 0x100039250, symSize: 0x54 }
  - { offset: 0x3080F, size: 0x8, addend: 0x0, symName: __ZNSt3__110shared_ptrI8hittableEC2B8ne180100I4quadvEEONS0_IT_EE, symObjAddr: 0x35F30, symBinAddr: 0x1000392A4, symSize: 0x40 }
  - { offset: 0x30852, size: 0x8, addend: 0x0, symName: __ZNSt3__19allocatorI3triEC1B8ne180100Ev, symObjAddr: 0x36020, symBinAddr: 0x100039394, symSize: 0x2C }
  - { offset: 0x308C8, size: 0x8, addend: 0x0, symName: __ZNSt3__118__allocation_guardINS_9allocatorINS_20__shared_ptr_emplaceI3triNS1_IS3_EEEEEEEC1B8ne180100IS4_EET_m, symObjAddr: 0x3604C, symBinAddr: 0x1000393C0, symSize: 0x34 }
  - { offset: 0x30917, size: 0x8, addend: 0x0, symName: __ZNKSt3__118__allocation_guardINS_9allocatorINS_20__shared_ptr_emplaceI3triNS1_IS3_EEEEEEE5__getB8ne180100Ev, symObjAddr: 0x36080, symBinAddr: 0x1000393F4, symSize: 0x18 }
  - { offset: 0x3093D, size: 0x8, addend: 0x0, symName: __ZNSt3__120__shared_ptr_emplaceI3triNS_9allocatorIS1_EEEC1B8ne180100IJ4vec3S6_S6_RNS_10shared_ptrI10lambertianEEES3_Li0EEES3_DpOT_, symObjAddr: 0x36098, symBinAddr: 0x10003940C, symSize: 0x4C }
  - { offset: 0x309DB, size: 0x8, addend: 0x0, symName: __ZNSt3__118__allocation_guardINS_9allocatorINS_20__shared_ptr_emplaceI3triNS1_IS3_EEEEEEE13__release_ptrB8ne180100Ev, symObjAddr: 0x360E4, symBinAddr: 0x100039458, symSize: 0x24 }
  - { offset: 0x30A0F, size: 0x8, addend: 0x0, symName: __ZNSt3__110shared_ptrI3triE27__create_with_control_blockB8ne180100IS1_NS_20__shared_ptr_emplaceIS1_NS_9allocatorIS1_EEEEEES2_PT_PT0_, symObjAddr: 0x36108, symBinAddr: 0x10003947C, symSize: 0xA4 }
  - { offset: 0x30A64, size: 0x8, addend: 0x0, symName: __ZNSt3__120__shared_ptr_emplaceI3triNS_9allocatorIS1_EEE10__get_elemB8ne180100Ev, symObjAddr: 0x361AC, symBinAddr: 0x100039520, symSize: 0x28 }
  - { offset: 0x30A8A, size: 0x8, addend: 0x0, symName: __ZNSt3__118__allocation_guardINS_9allocatorINS_20__shared_ptr_emplaceI3triNS1_IS3_EEEEEEED1B8ne180100Ev, symObjAddr: 0x361D4, symBinAddr: 0x100039548, symSize: 0x2C }
  - { offset: 0x30AB4, size: 0x8, addend: 0x0, symName: __ZNSt3__118__allocation_guardINS_9allocatorINS_20__shared_ptr_emplaceI3triNS1_IS3_EEEEEEEC2B8ne180100IS4_EET_m, symObjAddr: 0x36200, symBinAddr: 0x100039574, symSize: 0x50 }
  - { offset: 0x30B03, size: 0x8, addend: 0x0, symName: __ZNSt3__19allocatorINS_20__shared_ptr_emplaceI3triNS0_IS2_EEEEEC1B8ne180100IS2_EERKNS0_IT_EE, symObjAddr: 0x36250, symBinAddr: 0x1000395C4, symSize: 0x34 }
  - { offset: 0x30B41, size: 0x8, addend: 0x0, symName: __ZNSt3__116allocator_traitsINS_9allocatorINS_20__shared_ptr_emplaceI3triNS1_IS3_EEEEEEE8allocateB8ne180100ERS6_m, symObjAddr: 0x36284, symBinAddr: 0x1000395F8, symSize: 0x2C }
  - { offset: 0x30B74, size: 0x8, addend: 0x0, symName: __ZNSt3__19allocatorINS_20__shared_ptr_emplaceI3triNS0_IS2_EEEEEC2B8ne180100IS2_EERKNS0_IT_EE, symObjAddr: 0x362B0, symBinAddr: 0x100039624, symSize: 0x30 }
  - { offset: 0x30BB2, size: 0x8, addend: 0x0, symName: __ZNSt3__116__non_trivial_ifILb1ENS_9allocatorINS_20__shared_ptr_emplaceI3triNS1_IS3_EEEEEEEC2B8ne180100Ev, symObjAddr: 0x362E0, symBinAddr: 0x100039654, symSize: 0x14 }
  - { offset: 0x30BDC, size: 0x8, addend: 0x0, symName: __ZNSt3__19allocatorINS_20__shared_ptr_emplaceI3triNS0_IS2_EEEEE8allocateB8ne180100Em, symObjAddr: 0x362F4, symBinAddr: 0x100039668, symSize: 0x5C }
  - { offset: 0x30C1A, size: 0x8, addend: 0x0, symName: __ZNSt3__116allocator_traitsINS_9allocatorINS_20__shared_ptr_emplaceI3triNS1_IS3_EEEEEEE8max_sizeB8ne180100IS6_vEEmRKS6_, symObjAddr: 0x36350, symBinAddr: 0x1000396C4, symSize: 0x24 }
  - { offset: 0x30C48, size: 0x8, addend: 0x0, symName: __ZNKSt3__19allocatorINS_20__shared_ptr_emplaceI3triNS0_IS2_EEEEE8max_sizeB8ne180100Ev, symObjAddr: 0x36374, symBinAddr: 0x1000396E8, symSize: 0x20 }
  - { offset: 0x30C6E, size: 0x8, addend: 0x0, symName: __ZNSt3__120__shared_ptr_emplaceI3triNS_9allocatorIS1_EEEC2B8ne180100IJ4vec3S6_S6_RNS_10shared_ptrI10lambertianEEES3_Li0EEES3_DpOT_, symObjAddr: 0x36394, symBinAddr: 0x100039708, symSize: 0xD4 }
  - { offset: 0x30D2D, size: 0x8, addend: 0x0, symName: __ZNSt3__120__shared_ptr_emplaceI3triNS_9allocatorIS1_EEE8_StorageC1B8ne180100EOS3_, symObjAddr: 0x36468, symBinAddr: 0x1000397DC, symSize: 0x34 }
  - { offset: 0x30D66, size: 0x8, addend: 0x0, symName: __ZNSt3__120__shared_ptr_emplaceI3triNS_9allocatorIS1_EEE11__get_allocB8ne180100Ev, symObjAddr: 0x3649C, symBinAddr: 0x100039810, symSize: 0x28 }
  - { offset: 0x30D91, size: 0x8, addend: 0x0, symName: __ZNSt3__116allocator_traitsINS_9allocatorI3triEEE9constructB8ne180100IS2_J4vec3S6_S6_RNS_10shared_ptrI10lambertianEEEvEEvRS3_PT_DpOT0_, symObjAddr: 0x364C4, symBinAddr: 0x100039838, symSize: 0x4C }
  - { offset: 0x30E24, size: 0x8, addend: 0x0, symName: __ZNSt3__120__shared_ptr_emplaceI3triNS_9allocatorIS1_EEE8_StorageD1B8ne180100Ev, symObjAddr: 0x36510, symBinAddr: 0x100039884, symSize: 0x2C }
  - { offset: 0x30E4E, size: 0x8, addend: 0x0, symName: __ZNSt3__120__shared_ptr_emplaceI3triNS_9allocatorIS1_EEED1Ev, symObjAddr: 0x3653C, symBinAddr: 0x1000398B0, symSize: 0x2C }
  - { offset: 0x30E7A, size: 0x8, addend: 0x0, symName: __ZNSt3__120__shared_ptr_emplaceI3triNS_9allocatorIS1_EEED0Ev, symObjAddr: 0x36568, symBinAddr: 0x1000398DC, symSize: 0x30 }
  - { offset: 0x30EA6, size: 0x8, addend: 0x0, symName: __ZNSt3__120__shared_ptr_emplaceI3triNS_9allocatorIS1_EEE16__on_zero_sharedEv, symObjAddr: 0x36598, symBinAddr: 0x10003990C, symSize: 0x24 }
  - { offset: 0x30ECC, size: 0x8, addend: 0x0, symName: __ZNSt3__120__shared_ptr_emplaceI3triNS_9allocatorIS1_EEE21__on_zero_shared_weakEv, symObjAddr: 0x365BC, symBinAddr: 0x100039930, symSize: 0x5C }
  - { offset: 0x30F0D, size: 0x8, addend: 0x0, symName: __ZNSt3__120__shared_ptr_emplaceI3triNS_9allocatorIS1_EEE8_StorageC2B8ne180100EOS3_, symObjAddr: 0x36618, symBinAddr: 0x10003998C, symSize: 0x30 }
  - { offset: 0x30F46, size: 0x8, addend: 0x0, symName: __ZNSt3__120__shared_ptr_emplaceI3triNS_9allocatorIS1_EEE8_Storage11__get_allocB8ne180100Ev, symObjAddr: 0x36648, symBinAddr: 0x1000399BC, symSize: 0x3C }
  - { offset: 0x30F99, size: 0x8, addend: 0x0, symName: __ZNSt3__117__compressed_pairINS_9allocatorI3triEES2_E16__get_first_baseB8ne180100EPS4_, symObjAddr: 0x36684, symBinAddr: 0x1000399F8, symSize: 0x14 }
  - { offset: 0x30FBC, size: 0x8, addend: 0x0, symName: __ZNSt3__19allocatorI3triE9constructB8ne180100IS1_J4vec3S4_S4_RNS_10shared_ptrI10lambertianEEEEEvPT_DpOT0_, symObjAddr: 0x36698, symBinAddr: 0x100039A0C, symSize: 0xA4 }
  - { offset: 0x3104B, size: 0x8, addend: 0x0, symName: __ZN3triC1ERK4vec3S2_S2_NSt3__110shared_ptrI8materialEE, symObjAddr: 0x3673C, symBinAddr: 0x100039AB0, symSize: 0x4C }
  - { offset: 0x310AE, size: 0x8, addend: 0x0, symName: __ZN3triC2ERK4vec3S2_S2_NSt3__110shared_ptrI8materialEE, symObjAddr: 0x36788, symBinAddr: 0x100039AFC, symSize: 0xBC }
  - { offset: 0x31111, size: 0x8, addend: 0x0, symName: __ZN3triD1Ev, symObjAddr: 0x36844, symBinAddr: 0x100039BB8, symSize: 0x2C }
  - { offset: 0x3113D, size: 0x8, addend: 0x0, symName: __ZN3triD0Ev, symObjAddr: 0x36870, symBinAddr: 0x100039BE4, symSize: 0x30 }
  - { offset: 0x31169, size: 0x8, addend: 0x0, symName: __ZNK3tri11is_interiorEddR10hit_record, symObjAddr: 0x368A0, symBinAddr: 0x100039C14, symSize: 0xAC }
  - { offset: 0x311B9, size: 0x8, addend: 0x0, symName: __ZN3triD2Ev, symObjAddr: 0x3694C, symBinAddr: 0x100039CC0, symSize: 0x2C }
  - { offset: 0x311E5, size: 0x8, addend: 0x0, symName: __ZNSt3__120__shared_ptr_emplaceI3triNS_9allocatorIS1_EEE8_StorageD2B8ne180100Ev, symObjAddr: 0x36978, symBinAddr: 0x100039CEC, symSize: 0x2C }
  - { offset: 0x3120F, size: 0x8, addend: 0x0, symName: __ZNSt3__120__shared_ptr_emplaceI3triNS_9allocatorIS1_EEED2Ev, symObjAddr: 0x369A4, symBinAddr: 0x100039D18, symSize: 0x48 }
  - { offset: 0x3123B, size: 0x8, addend: 0x0, symName: __ZNSt3__120__shared_ptr_emplaceI3triNS_9allocatorIS1_EEE21__on_zero_shared_implB8ne180100IS3_Li0EEEvv, symObjAddr: 0x369EC, symBinAddr: 0x100039D60, symSize: 0x44 }
  - { offset: 0x3128B, size: 0x8, addend: 0x0, symName: __ZNSt3__116allocator_traitsINS_9allocatorI3triEEE7destroyB8ne180100IS2_vEEvRS3_PT_, symObjAddr: 0x36A30, symBinAddr: 0x100039DA4, symSize: 0x2C }
  - { offset: 0x312C8, size: 0x8, addend: 0x0, symName: __ZNSt3__19allocatorI3triE7destroyB8ne180100EPS1_, symObjAddr: 0x36A5C, symBinAddr: 0x100039DD0, symSize: 0x30 }
  - { offset: 0x312FC, size: 0x8, addend: 0x0, symName: __ZNSt3__116allocator_traitsINS_9allocatorINS_20__shared_ptr_emplaceI3triNS1_IS3_EEEEEEE10deallocateB8ne180100ERS6_PS5_m, symObjAddr: 0x36A8C, symBinAddr: 0x100039E00, symSize: 0x34 }
  - { offset: 0x3133E, size: 0x8, addend: 0x0, symName: __ZNSt3__114pointer_traitsIPNS_20__shared_ptr_emplaceI3triNS_9allocatorIS2_EEEEE10pointer_toB8ne180100ERS5_, symObjAddr: 0x36AC0, symBinAddr: 0x100039E34, symSize: 0x14 }
  - { offset: 0x31361, size: 0x8, addend: 0x0, symName: __ZNSt3__19allocatorINS_20__shared_ptr_emplaceI3triNS0_IS2_EEEEE10deallocateB8ne180100EPS4_m, symObjAddr: 0x36AD4, symBinAddr: 0x100039E48, symSize: 0x44 }
  - { offset: 0x313A3, size: 0x8, addend: 0x0, symName: __ZNSt3__110shared_ptrI3triEC1B8ne180100Ev, symObjAddr: 0x36B18, symBinAddr: 0x100039E8C, symSize: 0x2C }
  - { offset: 0x313CD, size: 0x8, addend: 0x0, symName: __ZNSt3__110shared_ptrI3triE18__enable_weak_thisB8ne180100Ez, symObjAddr: 0x36B44, symBinAddr: 0x100039EB8, symSize: 0x10 }
  - { offset: 0x313F4, size: 0x8, addend: 0x0, symName: __ZNSt3__110shared_ptrI3triEC2B8ne180100Ev, symObjAddr: 0x36B54, symBinAddr: 0x100039EC8, symSize: 0x1C }
  - { offset: 0x3141E, size: 0x8, addend: 0x0, symName: __ZNSt3__120__shared_ptr_emplaceI3triNS_9allocatorIS1_EEE8_Storage10__get_elemB8ne180100Ev, symObjAddr: 0x36B70, symBinAddr: 0x100039EE4, symSize: 0x3C }
  - { offset: 0x31471, size: 0x8, addend: 0x0, symName: __ZNSt3__117__compressed_pairINS_9allocatorI3triEES2_E17__get_second_baseB8ne180100EPS4_, symObjAddr: 0x36BAC, symBinAddr: 0x100039F20, symSize: 0x14 }
  - { offset: 0x31494, size: 0x8, addend: 0x0, symName: __ZNSt3__118__allocation_guardINS_9allocatorINS_20__shared_ptr_emplaceI3triNS1_IS3_EEEEEEED2B8ne180100Ev, symObjAddr: 0x36BC0, symBinAddr: 0x100039F34, symSize: 0x2C }
  - { offset: 0x314BE, size: 0x8, addend: 0x0, symName: __ZNSt3__118__allocation_guardINS_9allocatorINS_20__shared_ptr_emplaceI3triNS1_IS3_EEEEEEE9__destroyB8ne180100Ev, symObjAddr: 0x36BEC, symBinAddr: 0x100039F60, symSize: 0x4C }
  - { offset: 0x314E4, size: 0x8, addend: 0x0, symName: __ZNSt3__19allocatorI3triEC2B8ne180100Ev, symObjAddr: 0x36C38, symBinAddr: 0x100039FAC, symSize: 0x2C }
  - { offset: 0x3150E, size: 0x8, addend: 0x0, symName: __ZNSt3__116__non_trivial_ifILb1ENS_9allocatorI3triEEEC2B8ne180100Ev, symObjAddr: 0x36C64, symBinAddr: 0x100039FD8, symSize: 0x14 }
  - { offset: 0x31538, size: 0x8, addend: 0x0, symName: __ZNSt3__110shared_ptrI3triED2B8ne180100Ev, symObjAddr: 0x36C78, symBinAddr: 0x100039FEC, symSize: 0x54 }
  - { offset: 0x31562, size: 0x8, addend: 0x0, symName: __ZNSt3__110shared_ptrI8hittableEC2B8ne180100I3trivEEONS0_IT_EE, symObjAddr: 0x36CCC, symBinAddr: 0x10003A040, symSize: 0x40 }
  - { offset: 0x315A5, size: 0x8, addend: 0x0, symName: __ZNSt3__19allocatorI7ellipseEC1B8ne180100Ev, symObjAddr: 0x36DBC, symBinAddr: 0x10003A130, symSize: 0x2C }
  - { offset: 0x3161B, size: 0x8, addend: 0x0, symName: __ZNSt3__118__allocation_guardINS_9allocatorINS_20__shared_ptr_emplaceI7ellipseNS1_IS3_EEEEEEEC1B8ne180100IS4_EET_m, symObjAddr: 0x36DE8, symBinAddr: 0x10003A15C, symSize: 0x34 }
  - { offset: 0x3166A, size: 0x8, addend: 0x0, symName: __ZNKSt3__118__allocation_guardINS_9allocatorINS_20__shared_ptr_emplaceI7ellipseNS1_IS3_EEEEEEE5__getB8ne180100Ev, symObjAddr: 0x36E1C, symBinAddr: 0x10003A190, symSize: 0x18 }
  - { offset: 0x31690, size: 0x8, addend: 0x0, symName: __ZNSt3__120__shared_ptr_emplaceI7ellipseNS_9allocatorIS1_EEEC1B8ne180100IJ4vec3S6_S6_RNS_10shared_ptrI10lambertianEEES3_Li0EEES3_DpOT_, symObjAddr: 0x36E34, symBinAddr: 0x10003A1A8, symSize: 0x4C }
  - { offset: 0x3172E, size: 0x8, addend: 0x0, symName: __ZNSt3__118__allocation_guardINS_9allocatorINS_20__shared_ptr_emplaceI7ellipseNS1_IS3_EEEEEEE13__release_ptrB8ne180100Ev, symObjAddr: 0x36E80, symBinAddr: 0x10003A1F4, symSize: 0x24 }
  - { offset: 0x31762, size: 0x8, addend: 0x0, symName: __ZNSt3__110shared_ptrI7ellipseE27__create_with_control_blockB8ne180100IS1_NS_20__shared_ptr_emplaceIS1_NS_9allocatorIS1_EEEEEES2_PT_PT0_, symObjAddr: 0x36EA4, symBinAddr: 0x10003A218, symSize: 0xA4 }
  - { offset: 0x317B7, size: 0x8, addend: 0x0, symName: __ZNSt3__120__shared_ptr_emplaceI7ellipseNS_9allocatorIS1_EEE10__get_elemB8ne180100Ev, symObjAddr: 0x36F48, symBinAddr: 0x10003A2BC, symSize: 0x28 }
  - { offset: 0x317DD, size: 0x8, addend: 0x0, symName: __ZNSt3__118__allocation_guardINS_9allocatorINS_20__shared_ptr_emplaceI7ellipseNS1_IS3_EEEEEEED1B8ne180100Ev, symObjAddr: 0x36F70, symBinAddr: 0x10003A2E4, symSize: 0x2C }
  - { offset: 0x31807, size: 0x8, addend: 0x0, symName: __ZNSt3__118__allocation_guardINS_9allocatorINS_20__shared_ptr_emplaceI7ellipseNS1_IS3_EEEEEEEC2B8ne180100IS4_EET_m, symObjAddr: 0x36F9C, symBinAddr: 0x10003A310, symSize: 0x50 }
  - { offset: 0x31856, size: 0x8, addend: 0x0, symName: __ZNSt3__19allocatorINS_20__shared_ptr_emplaceI7ellipseNS0_IS2_EEEEEC1B8ne180100IS2_EERKNS0_IT_EE, symObjAddr: 0x36FEC, symBinAddr: 0x10003A360, symSize: 0x34 }
  - { offset: 0x31894, size: 0x8, addend: 0x0, symName: __ZNSt3__116allocator_traitsINS_9allocatorINS_20__shared_ptr_emplaceI7ellipseNS1_IS3_EEEEEEE8allocateB8ne180100ERS6_m, symObjAddr: 0x37020, symBinAddr: 0x10003A394, symSize: 0x2C }
  - { offset: 0x318C7, size: 0x8, addend: 0x0, symName: __ZNSt3__19allocatorINS_20__shared_ptr_emplaceI7ellipseNS0_IS2_EEEEEC2B8ne180100IS2_EERKNS0_IT_EE, symObjAddr: 0x3704C, symBinAddr: 0x10003A3C0, symSize: 0x30 }
  - { offset: 0x31905, size: 0x8, addend: 0x0, symName: __ZNSt3__116__non_trivial_ifILb1ENS_9allocatorINS_20__shared_ptr_emplaceI7ellipseNS1_IS3_EEEEEEEC2B8ne180100Ev, symObjAddr: 0x3707C, symBinAddr: 0x10003A3F0, symSize: 0x14 }
  - { offset: 0x3192F, size: 0x8, addend: 0x0, symName: __ZNSt3__19allocatorINS_20__shared_ptr_emplaceI7ellipseNS0_IS2_EEEEE8allocateB8ne180100Em, symObjAddr: 0x37090, symBinAddr: 0x10003A404, symSize: 0x5C }
  - { offset: 0x3196D, size: 0x8, addend: 0x0, symName: __ZNSt3__116allocator_traitsINS_9allocatorINS_20__shared_ptr_emplaceI7ellipseNS1_IS3_EEEEEEE8max_sizeB8ne180100IS6_vEEmRKS6_, symObjAddr: 0x370EC, symBinAddr: 0x10003A460, symSize: 0x24 }
  - { offset: 0x3199B, size: 0x8, addend: 0x0, symName: __ZNKSt3__19allocatorINS_20__shared_ptr_emplaceI7ellipseNS0_IS2_EEEEE8max_sizeB8ne180100Ev, symObjAddr: 0x37110, symBinAddr: 0x10003A484, symSize: 0x20 }
  - { offset: 0x319C1, size: 0x8, addend: 0x0, symName: __ZNSt3__120__shared_ptr_emplaceI7ellipseNS_9allocatorIS1_EEEC2B8ne180100IJ4vec3S6_S6_RNS_10shared_ptrI10lambertianEEES3_Li0EEES3_DpOT_, symObjAddr: 0x37130, symBinAddr: 0x10003A4A4, symSize: 0xD4 }
  - { offset: 0x31A80, size: 0x8, addend: 0x0, symName: __ZNSt3__120__shared_ptr_emplaceI7ellipseNS_9allocatorIS1_EEE8_StorageC1B8ne180100EOS3_, symObjAddr: 0x37204, symBinAddr: 0x10003A578, symSize: 0x34 }
  - { offset: 0x31AB9, size: 0x8, addend: 0x0, symName: __ZNSt3__120__shared_ptr_emplaceI7ellipseNS_9allocatorIS1_EEE11__get_allocB8ne180100Ev, symObjAddr: 0x37238, symBinAddr: 0x10003A5AC, symSize: 0x28 }
  - { offset: 0x31AE4, size: 0x8, addend: 0x0, symName: __ZNSt3__116allocator_traitsINS_9allocatorI7ellipseEEE9constructB8ne180100IS2_J4vec3S6_S6_RNS_10shared_ptrI10lambertianEEEvEEvRS3_PT_DpOT0_, symObjAddr: 0x37260, symBinAddr: 0x10003A5D4, symSize: 0x4C }
  - { offset: 0x31B77, size: 0x8, addend: 0x0, symName: __ZNSt3__120__shared_ptr_emplaceI7ellipseNS_9allocatorIS1_EEE8_StorageD1B8ne180100Ev, symObjAddr: 0x372AC, symBinAddr: 0x10003A620, symSize: 0x2C }
  - { offset: 0x31BA1, size: 0x8, addend: 0x0, symName: __ZNSt3__120__shared_ptr_emplaceI7ellipseNS_9allocatorIS1_EEED1Ev, symObjAddr: 0x372D8, symBinAddr: 0x10003A64C, symSize: 0x2C }
  - { offset: 0x31BCD, size: 0x8, addend: 0x0, symName: __ZNSt3__120__shared_ptr_emplaceI7ellipseNS_9allocatorIS1_EEED0Ev, symObjAddr: 0x37304, symBinAddr: 0x10003A678, symSize: 0x30 }
  - { offset: 0x31BF9, size: 0x8, addend: 0x0, symName: __ZNSt3__120__shared_ptr_emplaceI7ellipseNS_9allocatorIS1_EEE16__on_zero_sharedEv, symObjAddr: 0x37334, symBinAddr: 0x10003A6A8, symSize: 0x24 }
  - { offset: 0x31C1F, size: 0x8, addend: 0x0, symName: __ZNSt3__120__shared_ptr_emplaceI7ellipseNS_9allocatorIS1_EEE21__on_zero_shared_weakEv, symObjAddr: 0x37358, symBinAddr: 0x10003A6CC, symSize: 0x5C }
  - { offset: 0x31C60, size: 0x8, addend: 0x0, symName: __ZNSt3__120__shared_ptr_emplaceI7ellipseNS_9allocatorIS1_EEE8_StorageC2B8ne180100EOS3_, symObjAddr: 0x373B4, symBinAddr: 0x10003A728, symSize: 0x30 }
  - { offset: 0x31C99, size: 0x8, addend: 0x0, symName: __ZNSt3__120__shared_ptr_emplaceI7ellipseNS_9allocatorIS1_EEE8_Storage11__get_allocB8ne180100Ev, symObjAddr: 0x373E4, symBinAddr: 0x10003A758, symSize: 0x3C }
  - { offset: 0x31CEC, size: 0x8, addend: 0x0, symName: __ZNSt3__117__compressed_pairINS_9allocatorI7ellipseEES2_E16__get_first_baseB8ne180100EPS4_, symObjAddr: 0x37420, symBinAddr: 0x10003A794, symSize: 0x14 }
  - { offset: 0x31D0F, size: 0x8, addend: 0x0, symName: __ZNSt3__19allocatorI7ellipseE9constructB8ne180100IS1_J4vec3S4_S4_RNS_10shared_ptrI10lambertianEEEEEvPT_DpOT0_, symObjAddr: 0x37434, symBinAddr: 0x10003A7A8, symSize: 0xA4 }
  - { offset: 0x31D9E, size: 0x8, addend: 0x0, symName: __ZN7ellipseC1ERK4vec3S2_S2_NSt3__110shared_ptrI8materialEE, symObjAddr: 0x374D8, symBinAddr: 0x10003A84C, symSize: 0x4C }
  - { offset: 0x31E01, size: 0x8, addend: 0x0, symName: __ZN7ellipseC2ERK4vec3S2_S2_NSt3__110shared_ptrI8materialEE, symObjAddr: 0x37524, symBinAddr: 0x10003A898, symSize: 0xBC }
  - { offset: 0x31E64, size: 0x8, addend: 0x0, symName: __ZN7ellipseD1Ev, symObjAddr: 0x375E0, symBinAddr: 0x10003A954, symSize: 0x2C }
  - { offset: 0x31E90, size: 0x8, addend: 0x0, symName: __ZN7ellipseD0Ev, symObjAddr: 0x3760C, symBinAddr: 0x10003A980, symSize: 0x30 }
  - { offset: 0x31EBC, size: 0x8, addend: 0x0, symName: __ZN7ellipse16set_bounding_boxEv, symObjAddr: 0x3763C, symBinAddr: 0x10003A9B0, symSize: 0xC8 }
  - { offset: 0x31EE2, size: 0x8, addend: 0x0, symName: __ZNK7ellipse11is_interiorEddR10hit_record, symObjAddr: 0x37704, symBinAddr: 0x10003AA78, symSize: 0xA8 }
  - { offset: 0x31F32, size: 0x8, addend: 0x0, symName: __ZN7ellipseD2Ev, symObjAddr: 0x377AC, symBinAddr: 0x10003AB20, symSize: 0x2C }
  - { offset: 0x31F5E, size: 0x8, addend: 0x0, symName: __ZNSt3__120__shared_ptr_emplaceI7ellipseNS_9allocatorIS1_EEE8_StorageD2B8ne180100Ev, symObjAddr: 0x377D8, symBinAddr: 0x10003AB4C, symSize: 0x2C }
  - { offset: 0x31F88, size: 0x8, addend: 0x0, symName: __ZNSt3__120__shared_ptr_emplaceI7ellipseNS_9allocatorIS1_EEED2Ev, symObjAddr: 0x37804, symBinAddr: 0x10003AB78, symSize: 0x48 }
  - { offset: 0x31FB4, size: 0x8, addend: 0x0, symName: __ZNSt3__120__shared_ptr_emplaceI7ellipseNS_9allocatorIS1_EEE21__on_zero_shared_implB8ne180100IS3_Li0EEEvv, symObjAddr: 0x3784C, symBinAddr: 0x10003ABC0, symSize: 0x44 }
  - { offset: 0x32004, size: 0x8, addend: 0x0, symName: __ZNSt3__116allocator_traitsINS_9allocatorI7ellipseEEE7destroyB8ne180100IS2_vEEvRS3_PT_, symObjAddr: 0x37890, symBinAddr: 0x10003AC04, symSize: 0x2C }
  - { offset: 0x32041, size: 0x8, addend: 0x0, symName: __ZNSt3__19allocatorI7ellipseE7destroyB8ne180100EPS1_, symObjAddr: 0x378BC, symBinAddr: 0x10003AC30, symSize: 0x30 }
  - { offset: 0x32075, size: 0x8, addend: 0x0, symName: __ZNSt3__116allocator_traitsINS_9allocatorINS_20__shared_ptr_emplaceI7ellipseNS1_IS3_EEEEEEE10deallocateB8ne180100ERS6_PS5_m, symObjAddr: 0x378EC, symBinAddr: 0x10003AC60, symSize: 0x34 }
  - { offset: 0x320B7, size: 0x8, addend: 0x0, symName: __ZNSt3__114pointer_traitsIPNS_20__shared_ptr_emplaceI7ellipseNS_9allocatorIS2_EEEEE10pointer_toB8ne180100ERS5_, symObjAddr: 0x37920, symBinAddr: 0x10003AC94, symSize: 0x14 }
  - { offset: 0x320DA, size: 0x8, addend: 0x0, symName: __ZNSt3__19allocatorINS_20__shared_ptr_emplaceI7ellipseNS0_IS2_EEEEE10deallocateB8ne180100EPS4_m, symObjAddr: 0x37934, symBinAddr: 0x10003ACA8, symSize: 0x44 }
  - { offset: 0x3211C, size: 0x8, addend: 0x0, symName: __ZNSt3__110shared_ptrI7ellipseEC1B8ne180100Ev, symObjAddr: 0x37978, symBinAddr: 0x10003ACEC, symSize: 0x2C }
  - { offset: 0x32146, size: 0x8, addend: 0x0, symName: __ZNSt3__110shared_ptrI7ellipseE18__enable_weak_thisB8ne180100Ez, symObjAddr: 0x379A4, symBinAddr: 0x10003AD18, symSize: 0x10 }
  - { offset: 0x3216D, size: 0x8, addend: 0x0, symName: __ZNSt3__110shared_ptrI7ellipseEC2B8ne180100Ev, symObjAddr: 0x379B4, symBinAddr: 0x10003AD28, symSize: 0x1C }
  - { offset: 0x32197, size: 0x8, addend: 0x0, symName: __ZNSt3__120__shared_ptr_emplaceI7ellipseNS_9allocatorIS1_EEE8_Storage10__get_elemB8ne180100Ev, symObjAddr: 0x379D0, symBinAddr: 0x10003AD44, symSize: 0x3C }
  - { offset: 0x321EA, size: 0x8, addend: 0x0, symName: __ZNSt3__117__compressed_pairINS_9allocatorI7ellipseEES2_E17__get_second_baseB8ne180100EPS4_, symObjAddr: 0x37A0C, symBinAddr: 0x10003AD80, symSize: 0x14 }
  - { offset: 0x3220D, size: 0x8, addend: 0x0, symName: __ZNSt3__118__allocation_guardINS_9allocatorINS_20__shared_ptr_emplaceI7ellipseNS1_IS3_EEEEEEED2B8ne180100Ev, symObjAddr: 0x37A20, symBinAddr: 0x10003AD94, symSize: 0x2C }
  - { offset: 0x32237, size: 0x8, addend: 0x0, symName: __ZNSt3__118__allocation_guardINS_9allocatorINS_20__shared_ptr_emplaceI7ellipseNS1_IS3_EEEEEEE9__destroyB8ne180100Ev, symObjAddr: 0x37A4C, symBinAddr: 0x10003ADC0, symSize: 0x4C }
  - { offset: 0x3225D, size: 0x8, addend: 0x0, symName: __ZNSt3__19allocatorI7ellipseEC2B8ne180100Ev, symObjAddr: 0x37A98, symBinAddr: 0x10003AE0C, symSize: 0x2C }
  - { offset: 0x32287, size: 0x8, addend: 0x0, symName: __ZNSt3__116__non_trivial_ifILb1ENS_9allocatorI7ellipseEEEC2B8ne180100Ev, symObjAddr: 0x37AC4, symBinAddr: 0x10003AE38, symSize: 0x14 }
  - { offset: 0x322B1, size: 0x8, addend: 0x0, symName: __ZNSt3__110shared_ptrI7ellipseED2B8ne180100Ev, symObjAddr: 0x37AD8, symBinAddr: 0x10003AE4C, symSize: 0x54 }
  - { offset: 0x322DB, size: 0x8, addend: 0x0, symName: __ZNSt3__110shared_ptrI8hittableEC2B8ne180100I7ellipsevEEONS0_IT_EE, symObjAddr: 0x37B2C, symBinAddr: 0x10003AEA0, symSize: 0x40 }
  - { offset: 0x3231E, size: 0x8, addend: 0x0, symName: __ZNSt3__19allocatorI7annulusEC1B8ne180100Ev, symObjAddr: 0x37C24, symBinAddr: 0x10003AF98, symSize: 0x2C }
  - { offset: 0x32394, size: 0x8, addend: 0x0, symName: __ZNSt3__118__allocation_guardINS_9allocatorINS_20__shared_ptr_emplaceI7annulusNS1_IS3_EEEEEEEC1B8ne180100IS4_EET_m, symObjAddr: 0x37C50, symBinAddr: 0x10003AFC4, symSize: 0x34 }
  - { offset: 0x323E3, size: 0x8, addend: 0x0, symName: __ZNKSt3__118__allocation_guardINS_9allocatorINS_20__shared_ptr_emplaceI7annulusNS1_IS3_EEEEEEE5__getB8ne180100Ev, symObjAddr: 0x37C84, symBinAddr: 0x10003AFF8, symSize: 0x18 }
  - { offset: 0x32409, size: 0x8, addend: 0x0, symName: __ZNSt3__120__shared_ptr_emplaceI7annulusNS_9allocatorIS1_EEEC1B8ne180100IJ4vec3S6_S6_dRNS_10shared_ptrI10lambertianEEES3_Li0EEES3_DpOT_, symObjAddr: 0x37C9C, symBinAddr: 0x10003B010, symSize: 0x54 }
  - { offset: 0x324BB, size: 0x8, addend: 0x0, symName: __ZNSt3__118__allocation_guardINS_9allocatorINS_20__shared_ptr_emplaceI7annulusNS1_IS3_EEEEEEE13__release_ptrB8ne180100Ev, symObjAddr: 0x37CF0, symBinAddr: 0x10003B064, symSize: 0x24 }
  - { offset: 0x324EF, size: 0x8, addend: 0x0, symName: __ZNSt3__110shared_ptrI7annulusE27__create_with_control_blockB8ne180100IS1_NS_20__shared_ptr_emplaceIS1_NS_9allocatorIS1_EEEEEES2_PT_PT0_, symObjAddr: 0x37D14, symBinAddr: 0x10003B088, symSize: 0xA4 }
  - { offset: 0x32544, size: 0x8, addend: 0x0, symName: __ZNSt3__120__shared_ptr_emplaceI7annulusNS_9allocatorIS1_EEE10__get_elemB8ne180100Ev, symObjAddr: 0x37DB8, symBinAddr: 0x10003B12C, symSize: 0x28 }
  - { offset: 0x3256A, size: 0x8, addend: 0x0, symName: __ZNSt3__118__allocation_guardINS_9allocatorINS_20__shared_ptr_emplaceI7annulusNS1_IS3_EEEEEEED1B8ne180100Ev, symObjAddr: 0x37DE0, symBinAddr: 0x10003B154, symSize: 0x2C }
  - { offset: 0x32594, size: 0x8, addend: 0x0, symName: __ZNSt3__118__allocation_guardINS_9allocatorINS_20__shared_ptr_emplaceI7annulusNS1_IS3_EEEEEEEC2B8ne180100IS4_EET_m, symObjAddr: 0x37E0C, symBinAddr: 0x10003B180, symSize: 0x50 }
  - { offset: 0x325E3, size: 0x8, addend: 0x0, symName: __ZNSt3__19allocatorINS_20__shared_ptr_emplaceI7annulusNS0_IS2_EEEEEC1B8ne180100IS2_EERKNS0_IT_EE, symObjAddr: 0x37E5C, symBinAddr: 0x10003B1D0, symSize: 0x34 }
  - { offset: 0x32621, size: 0x8, addend: 0x0, symName: __ZNSt3__116allocator_traitsINS_9allocatorINS_20__shared_ptr_emplaceI7annulusNS1_IS3_EEEEEEE8allocateB8ne180100ERS6_m, symObjAddr: 0x37E90, symBinAddr: 0x10003B204, symSize: 0x2C }
  - { offset: 0x32654, size: 0x8, addend: 0x0, symName: __ZNSt3__19allocatorINS_20__shared_ptr_emplaceI7annulusNS0_IS2_EEEEEC2B8ne180100IS2_EERKNS0_IT_EE, symObjAddr: 0x37EBC, symBinAddr: 0x10003B230, symSize: 0x30 }
  - { offset: 0x32692, size: 0x8, addend: 0x0, symName: __ZNSt3__116__non_trivial_ifILb1ENS_9allocatorINS_20__shared_ptr_emplaceI7annulusNS1_IS3_EEEEEEEC2B8ne180100Ev, symObjAddr: 0x37EEC, symBinAddr: 0x10003B260, symSize: 0x14 }
  - { offset: 0x326BC, size: 0x8, addend: 0x0, symName: __ZNSt3__19allocatorINS_20__shared_ptr_emplaceI7annulusNS0_IS2_EEEEE8allocateB8ne180100Em, symObjAddr: 0x37F00, symBinAddr: 0x10003B274, symSize: 0x5C }
  - { offset: 0x326FA, size: 0x8, addend: 0x0, symName: __ZNSt3__116allocator_traitsINS_9allocatorINS_20__shared_ptr_emplaceI7annulusNS1_IS3_EEEEEEE8max_sizeB8ne180100IS6_vEEmRKS6_, symObjAddr: 0x37F5C, symBinAddr: 0x10003B2D0, symSize: 0x24 }
  - { offset: 0x32728, size: 0x8, addend: 0x0, symName: __ZNKSt3__19allocatorINS_20__shared_ptr_emplaceI7annulusNS0_IS2_EEEEE8max_sizeB8ne180100Ev, symObjAddr: 0x37F80, symBinAddr: 0x10003B2F4, symSize: 0x20 }
  - { offset: 0x3274E, size: 0x8, addend: 0x0, symName: __ZNSt3__120__shared_ptr_emplaceI7annulusNS_9allocatorIS1_EEEC2B8ne180100IJ4vec3S6_S6_dRNS_10shared_ptrI10lambertianEEES3_Li0EEES3_DpOT_, symObjAddr: 0x37FA0, symBinAddr: 0x10003B314, symSize: 0xDC }
  - { offset: 0x32821, size: 0x8, addend: 0x0, symName: __ZNSt3__120__shared_ptr_emplaceI7annulusNS_9allocatorIS1_EEE8_StorageC1B8ne180100EOS3_, symObjAddr: 0x3807C, symBinAddr: 0x10003B3F0, symSize: 0x34 }
  - { offset: 0x3285A, size: 0x8, addend: 0x0, symName: __ZNSt3__120__shared_ptr_emplaceI7annulusNS_9allocatorIS1_EEE11__get_allocB8ne180100Ev, symObjAddr: 0x380B0, symBinAddr: 0x10003B424, symSize: 0x28 }
  - { offset: 0x32885, size: 0x8, addend: 0x0, symName: __ZNSt3__116allocator_traitsINS_9allocatorI7annulusEEE9constructB8ne180100IS2_J4vec3S6_S6_dRNS_10shared_ptrI10lambertianEEEvEEvRS3_PT_DpOT0_, symObjAddr: 0x380D8, symBinAddr: 0x10003B44C, symSize: 0x54 }
  - { offset: 0x3292C, size: 0x8, addend: 0x0, symName: __ZNSt3__120__shared_ptr_emplaceI7annulusNS_9allocatorIS1_EEE8_StorageD1B8ne180100Ev, symObjAddr: 0x3812C, symBinAddr: 0x10003B4A0, symSize: 0x2C }
  - { offset: 0x32956, size: 0x8, addend: 0x0, symName: __ZNSt3__120__shared_ptr_emplaceI7annulusNS_9allocatorIS1_EEED1Ev, symObjAddr: 0x38158, symBinAddr: 0x10003B4CC, symSize: 0x2C }
  - { offset: 0x32982, size: 0x8, addend: 0x0, symName: __ZNSt3__120__shared_ptr_emplaceI7annulusNS_9allocatorIS1_EEED0Ev, symObjAddr: 0x38184, symBinAddr: 0x10003B4F8, symSize: 0x30 }
  - { offset: 0x329AE, size: 0x8, addend: 0x0, symName: __ZNSt3__120__shared_ptr_emplaceI7annulusNS_9allocatorIS1_EEE16__on_zero_sharedEv, symObjAddr: 0x381B4, symBinAddr: 0x10003B528, symSize: 0x24 }
  - { offset: 0x329D4, size: 0x8, addend: 0x0, symName: __ZNSt3__120__shared_ptr_emplaceI7annulusNS_9allocatorIS1_EEE21__on_zero_shared_weakEv, symObjAddr: 0x381D8, symBinAddr: 0x10003B54C, symSize: 0x5C }
  - { offset: 0x32A15, size: 0x8, addend: 0x0, symName: __ZNSt3__120__shared_ptr_emplaceI7annulusNS_9allocatorIS1_EEE8_StorageC2B8ne180100EOS3_, symObjAddr: 0x38234, symBinAddr: 0x10003B5A8, symSize: 0x30 }
  - { offset: 0x32A4E, size: 0x8, addend: 0x0, symName: __ZNSt3__120__shared_ptr_emplaceI7annulusNS_9allocatorIS1_EEE8_Storage11__get_allocB8ne180100Ev, symObjAddr: 0x38264, symBinAddr: 0x10003B5D8, symSize: 0x3C }
  - { offset: 0x32AA1, size: 0x8, addend: 0x0, symName: __ZNSt3__117__compressed_pairINS_9allocatorI7annulusEES2_E16__get_first_baseB8ne180100EPS4_, symObjAddr: 0x382A0, symBinAddr: 0x10003B614, symSize: 0x14 }
  - { offset: 0x32AC4, size: 0x8, addend: 0x0, symName: __ZNSt3__19allocatorI7annulusE9constructB8ne180100IS1_J4vec3S4_S4_dRNS_10shared_ptrI10lambertianEEEEEvPT_DpOT0_, symObjAddr: 0x382B4, symBinAddr: 0x10003B628, symSize: 0xB8 }
  - { offset: 0x32B66, size: 0x8, addend: 0x0, symName: __ZN7annulusC1ERK4vec3S2_S2_dNSt3__110shared_ptrI8materialEE, symObjAddr: 0x3836C, symBinAddr: 0x10003B6E0, symSize: 0x54 }
  - { offset: 0x32BD7, size: 0x8, addend: 0x0, symName: __ZN7annulusC2ERK4vec3S2_S2_dNSt3__110shared_ptrI8materialEE, symObjAddr: 0x383C0, symBinAddr: 0x10003B734, symSize: 0xC8 }
  - { offset: 0x32C48, size: 0x8, addend: 0x0, symName: __ZN7annulusD1Ev, symObjAddr: 0x38488, symBinAddr: 0x10003B7FC, symSize: 0x2C }
  - { offset: 0x32C74, size: 0x8, addend: 0x0, symName: __ZN7annulusD0Ev, symObjAddr: 0x384B4, symBinAddr: 0x10003B828, symSize: 0x30 }
  - { offset: 0x32CA0, size: 0x8, addend: 0x0, symName: __ZN7annulus16set_bounding_boxEv, symObjAddr: 0x384E4, symBinAddr: 0x10003B858, symSize: 0xC8 }
  - { offset: 0x32CC6, size: 0x8, addend: 0x0, symName: __ZNK7annulus11is_interiorEddR10hit_record, symObjAddr: 0x385AC, symBinAddr: 0x10003B920, symSize: 0xD0 }
  - { offset: 0x32D24, size: 0x8, addend: 0x0, symName: __ZN7annulusD2Ev, symObjAddr: 0x3867C, symBinAddr: 0x10003B9F0, symSize: 0x2C }
  - { offset: 0x32D50, size: 0x8, addend: 0x0, symName: __ZNSt3__120__shared_ptr_emplaceI7annulusNS_9allocatorIS1_EEE8_StorageD2B8ne180100Ev, symObjAddr: 0x386A8, symBinAddr: 0x10003BA1C, symSize: 0x2C }
  - { offset: 0x32D7A, size: 0x8, addend: 0x0, symName: __ZNSt3__120__shared_ptr_emplaceI7annulusNS_9allocatorIS1_EEED2Ev, symObjAddr: 0x386D4, symBinAddr: 0x10003BA48, symSize: 0x48 }
  - { offset: 0x32DA6, size: 0x8, addend: 0x0, symName: __ZNSt3__120__shared_ptr_emplaceI7annulusNS_9allocatorIS1_EEE21__on_zero_shared_implB8ne180100IS3_Li0EEEvv, symObjAddr: 0x3871C, symBinAddr: 0x10003BA90, symSize: 0x44 }
  - { offset: 0x32DF6, size: 0x8, addend: 0x0, symName: __ZNSt3__116allocator_traitsINS_9allocatorI7annulusEEE7destroyB8ne180100IS2_vEEvRS3_PT_, symObjAddr: 0x38760, symBinAddr: 0x10003BAD4, symSize: 0x2C }
  - { offset: 0x32E33, size: 0x8, addend: 0x0, symName: __ZNSt3__19allocatorI7annulusE7destroyB8ne180100EPS1_, symObjAddr: 0x3878C, symBinAddr: 0x10003BB00, symSize: 0x30 }
  - { offset: 0x32E67, size: 0x8, addend: 0x0, symName: __ZNSt3__116allocator_traitsINS_9allocatorINS_20__shared_ptr_emplaceI7annulusNS1_IS3_EEEEEEE10deallocateB8ne180100ERS6_PS5_m, symObjAddr: 0x387BC, symBinAddr: 0x10003BB30, symSize: 0x34 }
  - { offset: 0x32EA9, size: 0x8, addend: 0x0, symName: __ZNSt3__114pointer_traitsIPNS_20__shared_ptr_emplaceI7annulusNS_9allocatorIS2_EEEEE10pointer_toB8ne180100ERS5_, symObjAddr: 0x387F0, symBinAddr: 0x10003BB64, symSize: 0x14 }
  - { offset: 0x32ECC, size: 0x8, addend: 0x0, symName: __ZNSt3__19allocatorINS_20__shared_ptr_emplaceI7annulusNS0_IS2_EEEEE10deallocateB8ne180100EPS4_m, symObjAddr: 0x38804, symBinAddr: 0x10003BB78, symSize: 0x44 }
  - { offset: 0x32F0E, size: 0x8, addend: 0x0, symName: __ZNSt3__110shared_ptrI7annulusEC1B8ne180100Ev, symObjAddr: 0x38848, symBinAddr: 0x10003BBBC, symSize: 0x2C }
  - { offset: 0x32F38, size: 0x8, addend: 0x0, symName: __ZNSt3__110shared_ptrI7annulusE18__enable_weak_thisB8ne180100Ez, symObjAddr: 0x38874, symBinAddr: 0x10003BBE8, symSize: 0x10 }
  - { offset: 0x32F5F, size: 0x8, addend: 0x0, symName: __ZNSt3__110shared_ptrI7annulusEC2B8ne180100Ev, symObjAddr: 0x38884, symBinAddr: 0x10003BBF8, symSize: 0x1C }
  - { offset: 0x32F89, size: 0x8, addend: 0x0, symName: __ZNSt3__120__shared_ptr_emplaceI7annulusNS_9allocatorIS1_EEE8_Storage10__get_elemB8ne180100Ev, symObjAddr: 0x388A0, symBinAddr: 0x10003BC14, symSize: 0x3C }
  - { offset: 0x32FDC, size: 0x8, addend: 0x0, symName: __ZNSt3__117__compressed_pairINS_9allocatorI7annulusEES2_E17__get_second_baseB8ne180100EPS4_, symObjAddr: 0x388DC, symBinAddr: 0x10003BC50, symSize: 0x14 }
  - { offset: 0x32FFF, size: 0x8, addend: 0x0, symName: __ZNSt3__118__allocation_guardINS_9allocatorINS_20__shared_ptr_emplaceI7annulusNS1_IS3_EEEEEEED2B8ne180100Ev, symObjAddr: 0x388F0, symBinAddr: 0x10003BC64, symSize: 0x2C }
  - { offset: 0x33029, size: 0x8, addend: 0x0, symName: __ZNSt3__118__allocation_guardINS_9allocatorINS_20__shared_ptr_emplaceI7annulusNS1_IS3_EEEEEEE9__destroyB8ne180100Ev, symObjAddr: 0x3891C, symBinAddr: 0x10003BC90, symSize: 0x4C }
  - { offset: 0x3304F, size: 0x8, addend: 0x0, symName: __ZNSt3__19allocatorI7annulusEC2B8ne180100Ev, symObjAddr: 0x38968, symBinAddr: 0x10003BCDC, symSize: 0x2C }
  - { offset: 0x33079, size: 0x8, addend: 0x0, symName: __ZNSt3__116__non_trivial_ifILb1ENS_9allocatorI7annulusEEEC2B8ne180100Ev, symObjAddr: 0x38994, symBinAddr: 0x10003BD08, symSize: 0x14 }
  - { offset: 0x330A3, size: 0x8, addend: 0x0, symName: __ZNSt3__110shared_ptrI7annulusED2B8ne180100Ev, symObjAddr: 0x389A8, symBinAddr: 0x10003BD1C, symSize: 0x54 }
  - { offset: 0x330CD, size: 0x8, addend: 0x0, symName: __ZNSt3__110shared_ptrI8hittableEC2B8ne180100I7annulusvEEONS0_IT_EE, symObjAddr: 0x389FC, symBinAddr: 0x10003BD70, symSize: 0x40 }
...
